
firmware:     file format elf32-littlearm


Disassembly of section .text:

00000000 <Stack>:
       0:	20003ff0 	.word	0x20003ff0

00000004 <Reset>:
       4:	0000010b 	.word	0x0000010b

00000008 <NMI>:
       8:	000000c1 	.word	0x000000c1

0000000c <HardFault>:
       c:	000000c3 	.word	0x000000c3

00000010 <Reserved_10>:
      10:	00000000 	.word	0x00000000

00000014 <Reserved_14>:
      14:	00000000 	.word	0x00000000

00000018 <Reserved_18>:
      18:	00000000 	.word	0x00000000

0000001c <Reserved_1C>:
      1c:	00000000 	.word	0x00000000

00000020 <Reserved_20>:
      20:	00000000 	.word	0x00000000

00000024 <Reserved_24>:
      24:	00000000 	.word	0x00000000

00000028 <Reserved_28>:
      28:	00000000 	.word	0x00000000

0000002c <SVCall>:
      2c:	000000c5 	.word	0x000000c5

00000030 <Reserved_30>:
      30:	00000000 	.word	0x00000000

00000034 <Reserved_34>:
      34:	00000000 	.word	0x00000000

00000038 <PendSV>:
      38:	000000c7 	.word	0x000000c7

0000003c <SysTick>:
      3c:	00009699 	.word	0x00009699

00000040 <WWDT>:
      40:	000000cb 	.word	0x000000cb

00000044 <IWDT>:
      44:	000000cd 	.word	0x000000cd

00000048 <RTC>:
      48:	000000cf 	.word	0x000000cf

0000004c <DMA>:
      4c:	000000d1 	.word	0x000000d1

00000050 <SARADC>:
      50:	000000d3 	.word	0x000000d3

00000054 <TIMER_BASE0>:
      54:	000000d5 	.word	0x000000d5

00000058 <TIMER_BASE1>:
      58:	000000d7 	.word	0x000000d7

0000005c <TIMER_PLUS0>:
      5c:	000000d9 	.word	0x000000d9

00000060 <TIMER_PLUS1>:
      60:	000000db 	.word	0x000000db

00000064 <PWM_BASE0>:
      64:	000000dd 	.word	0x000000dd

00000068 <PWM_BASE1>:
      68:	000000df 	.word	0x000000df

0000006c <PWM_PLUS0>:
      6c:	000000e1 	.word	0x000000e1

00000070 <PWM_PLUS1>:
      70:	000000e3 	.word	0x000000e3

00000074 <UART0>:
      74:	000000e5 	.word	0x000000e5

00000078 <UART1>:
      78:	000000e7 	.word	0x000000e7

0000007c <UART2>:
      7c:	000000e9 	.word	0x000000e9

00000080 <SPI0>:
      80:	000000eb 	.word	0x000000eb

00000084 <SPI1>:
      84:	000000ed 	.word	0x000000ed

00000088 <IIC0>:
      88:	000000ef 	.word	0x000000ef

0000008c <IIC1>:
      8c:	000000f1 	.word	0x000000f1

00000090 <CMP>:
      90:	000000f3 	.word	0x000000f3

00000094 <TIMER_BASE2>:
      94:	000000f5 	.word	0x000000f5

00000098 <GPIOA5>:
      98:	000000f7 	.word	0x000000f7

0000009c <GPIOA6>:
      9c:	000000f9 	.word	0x000000f9

000000a0 <GPIOA7>:
      a0:	000000fb 	.word	0x000000fb

000000a4 <GPIOB0>:
      a4:	000000fd 	.word	0x000000fd

000000a8 <GPIOB1>:
      a8:	000000ff 	.word	0x000000ff

000000ac <GPIOC0>:
      ac:	00000101 	.word	0x00000101

000000b0 <GPIOC1>:
      b0:	00000103 	.word	0x00000103

000000b4 <GPIOA>:
      b4:	00000105 	.word	0x00000105

000000b8 <GPIOB>:
      b8:	00000107 	.word	0x00000107

000000bc <GPIOC>:
      bc:	00000109 	.word	0x00000109

000000c0 <HandlerNMI>:
      c0:	e7fe      	b.n	c0 <HandlerNMI>

000000c2 <HandlerHardFault>:
      c2:	e7fe      	b.n	c2 <HandlerHardFault>

000000c4 <HandlerSVCall>:
      c4:	e7fe      	b.n	c4 <HandlerSVCall>

000000c6 <HandlerPendSV>:
      c6:	e7fe      	b.n	c6 <HandlerPendSV>
      c8:	4770      	bx	lr

000000ca <HandlerWWDT>:
      ca:	e7fe      	b.n	ca <HandlerWWDT>

000000cc <HandlerIWDT>:
      cc:	e7fe      	b.n	cc <HandlerIWDT>

000000ce <HandlerRTC>:
      ce:	e7fe      	b.n	ce <HandlerRTC>

000000d0 <HandlerDMA>:
      d0:	e7fe      	b.n	d0 <HandlerDMA>

000000d2 <HandlerSARADC>:
      d2:	e7fe      	b.n	d2 <HandlerSARADC>

000000d4 <HandlerTIMER_BASE0>:
      d4:	e7fe      	b.n	d4 <HandlerTIMER_BASE0>

000000d6 <HandlerTIMER_BASE1>:
      d6:	e7fe      	b.n	d6 <HandlerTIMER_BASE1>

000000d8 <HandlerTIMER_PLUS0>:
      d8:	e7fe      	b.n	d8 <HandlerTIMER_PLUS0>

000000da <HandlerTIMER_PLUS1>:
      da:	e7fe      	b.n	da <HandlerTIMER_PLUS1>

000000dc <HandlerPWM_BASE0>:
      dc:	e7fe      	b.n	dc <HandlerPWM_BASE0>

000000de <HandlerPWM_BASE1>:
      de:	e7fe      	b.n	de <HandlerPWM_BASE1>

000000e0 <HandlerPWM_PLUS0>:
      e0:	e7fe      	b.n	e0 <HandlerPWM_PLUS0>

000000e2 <HandlerPWM_PLUS1>:
      e2:	e7fe      	b.n	e2 <HandlerPWM_PLUS1>

000000e4 <HandlerUART0>:
      e4:	e7fe      	b.n	e4 <HandlerUART0>

000000e6 <HandlerUART1>:
      e6:	e7fe      	b.n	e6 <HandlerUART1>

000000e8 <HandlerUART2>:
      e8:	e7fe      	b.n	e8 <HandlerUART2>

000000ea <HandlerSPI0>:
      ea:	e7fe      	b.n	ea <HandlerSPI0>

000000ec <HandlerSPI1>:
      ec:	e7fe      	b.n	ec <HandlerSPI1>

000000ee <HandlerIIC0>:
      ee:	e7fe      	b.n	ee <HandlerIIC0>

000000f0 <HandlerIIC1>:
      f0:	e7fe      	b.n	f0 <HandlerIIC1>

000000f2 <HandlerCMP>:
      f2:	e7fe      	b.n	f2 <HandlerCMP>

000000f4 <HandlerTIMER_BASE2>:
      f4:	e7fe      	b.n	f4 <HandlerTIMER_BASE2>

000000f6 <HandlerGPIOA5>:
      f6:	e7fe      	b.n	f6 <HandlerGPIOA5>

000000f8 <HandlerGPIOA6>:
      f8:	e7fe      	b.n	f8 <HandlerGPIOA6>

000000fa <HandlerGPIOA7>:
      fa:	e7fe      	b.n	fa <HandlerGPIOA7>

000000fc <HandlerGPIOB0>:
      fc:	e7fe      	b.n	fc <HandlerGPIOB0>

000000fe <HandlerGPIOB1>:
      fe:	e7fe      	b.n	fe <HandlerGPIOB1>

00000100 <HandlerGPIOC0>:
     100:	e7fe      	b.n	100 <HandlerGPIOC0>

00000102 <HandlerGPIOC1>:
     102:	e7fe      	b.n	102 <HandlerGPIOC1>

00000104 <HandlerGPIOA>:
     104:	e7fe      	b.n	104 <HandlerGPIOA>

00000106 <HandlerGPIOB>:
     106:	e7fe      	b.n	106 <HandlerGPIOB>

00000108 <HandlerGPIOC>:
     108:	e7fe      	b.n	108 <HandlerGPIOC>

0000010a <HandlerReset>:
     10a:	4804      	ldr	r0, [pc, #16]	; (11c <HandlerReset+0x12>)
     10c:	4685      	mov	sp, r0
     10e:	f000 f813 	bl	138 <DATA_Init>
     112:	f000 f805 	bl	120 <BSS_Init>
     116:	f00b fb26 	bl	b766 <Main>
     11a:	e7fe      	b.n	11a <HandlerReset+0x10>
     11c:	20003ff0 	.word	0x20003ff0

00000120 <BSS_Init>:
     120:	2100      	movs	r1, #0
     122:	4b03      	ldr	r3, [pc, #12]	; (130 <BSS_Init+0x10>)
     124:	4a03      	ldr	r2, [pc, #12]	; (134 <BSS_Init+0x14>)
     126:	4293      	cmp	r3, r2
     128:	d300      	bcc.n	12c <BSS_Init+0xc>
     12a:	4770      	bx	lr
     12c:	c302      	stmia	r3!, {r1}
     12e:	e7fa      	b.n	126 <BSS_Init+0x6>
     130:	2000063c 	.word	0x2000063c
     134:	2000132c 	.word	0x2000132c

00000138 <DATA_Init>:
     138:	2000      	movs	r0, #0
     13a:	b510      	push	{r4, lr}
     13c:	4b05      	ldr	r3, [pc, #20]	; (154 <DATA_Init+0x1c>)
     13e:	4906      	ldr	r1, [pc, #24]	; (158 <DATA_Init+0x20>)
     140:	4a06      	ldr	r2, [pc, #24]	; (15c <DATA_Init+0x24>)
     142:	1ac9      	subs	r1, r1, r3
     144:	0889      	lsrs	r1, r1, #2
     146:	4281      	cmp	r1, r0
     148:	d100      	bne.n	14c <DATA_Init+0x14>
     14a:	bd10      	pop	{r4, pc}
     14c:	ca10      	ldmia	r2!, {r4}
     14e:	3001      	adds	r0, #1
     150:	c310      	stmia	r3!, {r4}
     152:	e7f8      	b.n	146 <DATA_Init+0xe>
     154:	20000000 	.word	0x20000000
     158:	2000063c 	.word	0x2000063c
     15c:	0000e53c 	.word	0x0000e53c

00000160 <_out_buffer>:
     160:	429a      	cmp	r2, r3
     162:	d200      	bcs.n	166 <_out_buffer+0x6>
     164:	5488      	strb	r0, [r1, r2]
     166:	4770      	bx	lr

00000168 <_out_null>:
     168:	4770      	bx	lr

0000016a <_ntoa_long>:
     16a:	b5f0      	push	{r4, r5, r6, r7, lr}
     16c:	b091      	sub	sp, #68	; 0x44
     16e:	9304      	str	r3, [sp, #16]
     170:	ab16      	add	r3, sp, #88	; 0x58
     172:	cb10      	ldmia	r3!, {r4}
     174:	9f1a      	ldr	r7, [sp, #104]	; 0x68
     176:	781b      	ldrb	r3, [r3, #0]
     178:	9e1b      	ldr	r6, [sp, #108]	; 0x6c
     17a:	9002      	str	r0, [sp, #8]
     17c:	9103      	str	r1, [sp, #12]
     17e:	9200      	str	r2, [sp, #0]
     180:	9305      	str	r3, [sp, #20]
     182:	2c00      	cmp	r4, #0
     184:	d101      	bne.n	18a <_ntoa_long+0x20>
     186:	2310      	movs	r3, #16
     188:	439e      	bics	r6, r3
     18a:	2380      	movs	r3, #128	; 0x80
     18c:	0032      	movs	r2, r6
     18e:	00db      	lsls	r3, r3, #3
     190:	401a      	ands	r2, r3
     192:	9206      	str	r2, [sp, #24]
     194:	421e      	tst	r6, r3
     196:	d001      	beq.n	19c <_ntoa_long+0x32>
     198:	2c00      	cmp	r4, #0
     19a:	d020      	beq.n	1de <_ntoa_long+0x74>
     19c:	2361      	movs	r3, #97	; 0x61
     19e:	06b2      	lsls	r2, r6, #26
     1a0:	d500      	bpl.n	1a4 <_ntoa_long+0x3a>
     1a2:	2341      	movs	r3, #65	; 0x41
     1a4:	2200      	movs	r2, #0
     1a6:	0025      	movs	r5, r4
     1a8:	b2db      	uxtb	r3, r3
     1aa:	3b0a      	subs	r3, #10
     1ac:	9201      	str	r2, [sp, #4]
     1ae:	9307      	str	r3, [sp, #28]
     1b0:	0028      	movs	r0, r5
     1b2:	9918      	ldr	r1, [sp, #96]	; 0x60
     1b4:	f00b fc24 	bl	ba00 <__aeabi_uidivmod>
     1b8:	9b07      	ldr	r3, [sp, #28]
     1ba:	b2ca      	uxtb	r2, r1
     1bc:	18d3      	adds	r3, r2, r3
     1be:	b2db      	uxtb	r3, r3
     1c0:	2909      	cmp	r1, #9
     1c2:	d802      	bhi.n	1ca <_ntoa_long+0x60>
     1c4:	0013      	movs	r3, r2
     1c6:	3330      	adds	r3, #48	; 0x30
     1c8:	b2db      	uxtb	r3, r3
     1ca:	9a01      	ldr	r2, [sp, #4]
     1cc:	9901      	ldr	r1, [sp, #4]
     1ce:	1c54      	adds	r4, r2, #1
     1d0:	aa08      	add	r2, sp, #32
     1d2:	548b      	strb	r3, [r1, r2]
     1d4:	9b18      	ldr	r3, [sp, #96]	; 0x60
     1d6:	429d      	cmp	r5, r3
     1d8:	d301      	bcc.n	1de <_ntoa_long+0x74>
     1da:	2c20      	cmp	r4, #32
     1dc:	d114      	bne.n	208 <_ntoa_long+0x9e>
     1de:	2302      	movs	r3, #2
     1e0:	0032      	movs	r2, r6
     1e2:	401a      	ands	r2, r3
     1e4:	9207      	str	r2, [sp, #28]
     1e6:	421e      	tst	r6, r3
     1e8:	d120      	bne.n	22c <_ntoa_long+0xc2>
     1ea:	3b01      	subs	r3, #1
     1ec:	4033      	ands	r3, r6
     1ee:	2f00      	cmp	r7, #0
     1f0:	d008      	beq.n	204 <_ntoa_long+0x9a>
     1f2:	2b00      	cmp	r3, #0
     1f4:	d006      	beq.n	204 <_ntoa_long+0x9a>
     1f6:	9a05      	ldr	r2, [sp, #20]
     1f8:	2a00      	cmp	r2, #0
     1fa:	d102      	bne.n	202 <_ntoa_long+0x98>
     1fc:	320c      	adds	r2, #12
     1fe:	4216      	tst	r6, r2
     200:	d000      	beq.n	204 <_ntoa_long+0x9a>
     202:	3f01      	subs	r7, #1
     204:	2230      	movs	r2, #48	; 0x30
     206:	e007      	b.n	218 <_ntoa_long+0xae>
     208:	0005      	movs	r5, r0
     20a:	9401      	str	r4, [sp, #4]
     20c:	e7d0      	b.n	1b0 <_ntoa_long+0x46>
     20e:	2c20      	cmp	r4, #32
     210:	d005      	beq.n	21e <_ntoa_long+0xb4>
     212:	a908      	add	r1, sp, #32
     214:	5462      	strb	r2, [r4, r1]
     216:	3401      	adds	r4, #1
     218:	9919      	ldr	r1, [sp, #100]	; 0x64
     21a:	42a1      	cmp	r1, r4
     21c:	d8f7      	bhi.n	20e <_ntoa_long+0xa4>
     21e:	2230      	movs	r2, #48	; 0x30
     220:	2b00      	cmp	r3, #0
     222:	d003      	beq.n	22c <_ntoa_long+0xc2>
     224:	42a7      	cmp	r7, r4
     226:	d901      	bls.n	22c <_ntoa_long+0xc2>
     228:	2c1f      	cmp	r4, #31
     22a:	d91a      	bls.n	262 <_ntoa_long+0xf8>
     22c:	06f3      	lsls	r3, r6, #27
     22e:	d546      	bpl.n	2be <_ntoa_long+0x154>
     230:	9b06      	ldr	r3, [sp, #24]
     232:	2b00      	cmp	r3, #0
     234:	d11a      	bne.n	26c <_ntoa_long+0x102>
     236:	2c00      	cmp	r4, #0
     238:	d018      	beq.n	26c <_ntoa_long+0x102>
     23a:	9b19      	ldr	r3, [sp, #100]	; 0x64
     23c:	42a3      	cmp	r3, r4
     23e:	d001      	beq.n	244 <_ntoa_long+0xda>
     240:	42bc      	cmp	r4, r7
     242:	d113      	bne.n	26c <_ntoa_long+0x102>
     244:	1e63      	subs	r3, r4, #1
     246:	2c01      	cmp	r4, #1
     248:	d00f      	beq.n	26a <_ntoa_long+0x100>
     24a:	9a18      	ldr	r2, [sp, #96]	; 0x60
     24c:	3c02      	subs	r4, #2
     24e:	2a10      	cmp	r2, #16
     250:	d00f      	beq.n	272 <_ntoa_long+0x108>
     252:	001c      	movs	r4, r3
     254:	9b18      	ldr	r3, [sp, #96]	; 0x60
     256:	2b02      	cmp	r3, #2
     258:	d12b      	bne.n	2b2 <_ntoa_long+0x148>
     25a:	2c1f      	cmp	r4, #31
     25c:	d80e      	bhi.n	27c <_ntoa_long+0x112>
     25e:	2362      	movs	r3, #98	; 0x62
     260:	e024      	b.n	2ac <_ntoa_long+0x142>
     262:	a908      	add	r1, sp, #32
     264:	5462      	strb	r2, [r4, r1]
     266:	3401      	adds	r4, #1
     268:	e7da      	b.n	220 <_ntoa_long+0xb6>
     26a:	001c      	movs	r4, r3
     26c:	9b18      	ldr	r3, [sp, #96]	; 0x60
     26e:	2b10      	cmp	r3, #16
     270:	d1f0      	bne.n	254 <_ntoa_long+0xea>
     272:	06b3      	lsls	r3, r6, #26
     274:	d417      	bmi.n	2a6 <_ntoa_long+0x13c>
     276:	2378      	movs	r3, #120	; 0x78
     278:	2c1f      	cmp	r4, #31
     27a:	d917      	bls.n	2ac <_ntoa_long+0x142>
     27c:	07b3      	lsls	r3, r6, #30
     27e:	d042      	beq.n	306 <_ntoa_long+0x19c>
     280:	9b00      	ldr	r3, [sp, #0]
     282:	0025      	movs	r5, r4
     284:	9301      	str	r3, [sp, #4]
     286:	9b01      	ldr	r3, [sp, #4]
     288:	18e0      	adds	r0, r4, r3
     28a:	1b42      	subs	r2, r0, r5
     28c:	2d00      	cmp	r5, #0
     28e:	d13c      	bne.n	30a <_ntoa_long+0x1a0>
     290:	9b07      	ldr	r3, [sp, #28]
     292:	2b00      	cmp	r3, #0
     294:	d005      	beq.n	2a2 <_ntoa_long+0x138>
     296:	9b00      	ldr	r3, [sp, #0]
     298:	1ac4      	subs	r4, r0, r3
     29a:	9b00      	ldr	r3, [sp, #0]
     29c:	1918      	adds	r0, r3, r4
     29e:	42bc      	cmp	r4, r7
     2a0:	d33b      	bcc.n	31a <_ntoa_long+0x1b0>
     2a2:	b011      	add	sp, #68	; 0x44
     2a4:	bdf0      	pop	{r4, r5, r6, r7, pc}
     2a6:	2358      	movs	r3, #88	; 0x58
     2a8:	2c1f      	cmp	r4, #31
     2aa:	d8e7      	bhi.n	27c <_ntoa_long+0x112>
     2ac:	aa08      	add	r2, sp, #32
     2ae:	5513      	strb	r3, [r2, r4]
     2b0:	3401      	adds	r4, #1
     2b2:	2c1f      	cmp	r4, #31
     2b4:	d8e2      	bhi.n	27c <_ntoa_long+0x112>
     2b6:	2330      	movs	r3, #48	; 0x30
     2b8:	aa08      	add	r2, sp, #32
     2ba:	5513      	strb	r3, [r2, r4]
     2bc:	3401      	adds	r4, #1
     2be:	2c1f      	cmp	r4, #31
     2c0:	d8dc      	bhi.n	27c <_ntoa_long+0x112>
     2c2:	9b05      	ldr	r3, [sp, #20]
     2c4:	2b00      	cmp	r3, #0
     2c6:	d004      	beq.n	2d2 <_ntoa_long+0x168>
     2c8:	232d      	movs	r3, #45	; 0x2d
     2ca:	aa08      	add	r2, sp, #32
     2cc:	5513      	strb	r3, [r2, r4]
     2ce:	3401      	adds	r4, #1
     2d0:	e7d4      	b.n	27c <_ntoa_long+0x112>
     2d2:	0773      	lsls	r3, r6, #29
     2d4:	d501      	bpl.n	2da <_ntoa_long+0x170>
     2d6:	232b      	movs	r3, #43	; 0x2b
     2d8:	e7f7      	b.n	2ca <_ntoa_long+0x160>
     2da:	0733      	lsls	r3, r6, #28
     2dc:	d5ce      	bpl.n	27c <_ntoa_long+0x112>
     2de:	2320      	movs	r3, #32
     2e0:	e7f3      	b.n	2ca <_ntoa_long+0x160>
     2e2:	2020      	movs	r0, #32
     2e4:	9b04      	ldr	r3, [sp, #16]
     2e6:	9903      	ldr	r1, [sp, #12]
     2e8:	9e02      	ldr	r6, [sp, #8]
     2ea:	47b0      	blx	r6
     2ec:	3501      	adds	r5, #1
     2ee:	9b00      	ldr	r3, [sp, #0]
     2f0:	1b1a      	subs	r2, r3, r4
     2f2:	1952      	adds	r2, r2, r5
     2f4:	42af      	cmp	r7, r5
     2f6:	d8f4      	bhi.n	2e2 <_ntoa_long+0x178>
     2f8:	2600      	movs	r6, #0
     2fa:	42a7      	cmp	r7, r4
     2fc:	d300      	bcc.n	300 <_ntoa_long+0x196>
     2fe:	1b3e      	subs	r6, r7, r4
     300:	9b00      	ldr	r3, [sp, #0]
     302:	18f3      	adds	r3, r6, r3
     304:	e7bd      	b.n	282 <_ntoa_long+0x118>
     306:	0025      	movs	r5, r4
     308:	e7f1      	b.n	2ee <_ntoa_long+0x184>
     30a:	ab08      	add	r3, sp, #32
     30c:	3d01      	subs	r5, #1
     30e:	5ce8      	ldrb	r0, [r5, r3]
     310:	9903      	ldr	r1, [sp, #12]
     312:	9b04      	ldr	r3, [sp, #16]
     314:	9e02      	ldr	r6, [sp, #8]
     316:	47b0      	blx	r6
     318:	e7b5      	b.n	286 <_ntoa_long+0x11c>
     31a:	0002      	movs	r2, r0
     31c:	9b04      	ldr	r3, [sp, #16]
     31e:	2020      	movs	r0, #32
     320:	9903      	ldr	r1, [sp, #12]
     322:	9d02      	ldr	r5, [sp, #8]
     324:	47a8      	blx	r5
     326:	3401      	adds	r4, #1
     328:	e7b7      	b.n	29a <_ntoa_long+0x130>

0000032a <_out_char>:
     32a:	b510      	push	{r4, lr}
     32c:	2800      	cmp	r0, #0
     32e:	d001      	beq.n	334 <_out_char+0xa>
     330:	f00b fa18 	bl	b764 <_putchar>
     334:	bd10      	pop	{r4, pc}

00000336 <_out_fct>:
     336:	b510      	push	{r4, lr}
     338:	2800      	cmp	r0, #0
     33a:	d002      	beq.n	342 <_out_fct+0xc>
     33c:	680b      	ldr	r3, [r1, #0]
     33e:	6849      	ldr	r1, [r1, #4]
     340:	4798      	blx	r3
     342:	bd10      	pop	{r4, pc}

00000344 <_vsnprintf>:
     344:	b5f0      	push	{r4, r5, r6, r7, lr}
     346:	b091      	sub	sp, #68	; 0x44
     348:	9c16      	ldr	r4, [sp, #88]	; 0x58
     34a:	9008      	str	r0, [sp, #32]
     34c:	9109      	str	r1, [sp, #36]	; 0x24
     34e:	9207      	str	r2, [sp, #28]
     350:	930a      	str	r3, [sp, #40]	; 0x28
     352:	2900      	cmp	r1, #0
     354:	d101      	bne.n	35a <_vsnprintf+0x16>
     356:	4ba8      	ldr	r3, [pc, #672]	; (5f8 <_vsnprintf+0x2b4>)
     358:	9308      	str	r3, [sp, #32]
     35a:	2600      	movs	r6, #0
     35c:	e111      	b.n	582 <_vsnprintf+0x23e>
     35e:	9b0a      	ldr	r3, [sp, #40]	; 0x28
     360:	3301      	adds	r3, #1
     362:	930a      	str	r3, [sp, #40]	; 0x28
     364:	2825      	cmp	r0, #37	; 0x25
     366:	d007      	beq.n	378 <_vsnprintf+0x34>
     368:	0032      	movs	r2, r6
     36a:	1c75      	adds	r5, r6, #1
     36c:	9b07      	ldr	r3, [sp, #28]
     36e:	9909      	ldr	r1, [sp, #36]	; 0x24
     370:	9e08      	ldr	r6, [sp, #32]
     372:	47b0      	blx	r6
     374:	002e      	movs	r6, r5
     376:	e104      	b.n	582 <_vsnprintf+0x23e>
     378:	2300      	movs	r3, #0
     37a:	2001      	movs	r0, #1
     37c:	2508      	movs	r5, #8
     37e:	e005      	b.n	38c <_vsnprintf+0x48>
     380:	2a2d      	cmp	r2, #45	; 0x2d
     382:	d015      	beq.n	3b0 <_vsnprintf+0x6c>
     384:	2a30      	cmp	r2, #48	; 0x30
     386:	d10c      	bne.n	3a2 <_vsnprintf+0x5e>
     388:	4303      	orrs	r3, r0
     38a:	910a      	str	r1, [sp, #40]	; 0x28
     38c:	9a0a      	ldr	r2, [sp, #40]	; 0x28
     38e:	990a      	ldr	r1, [sp, #40]	; 0x28
     390:	7812      	ldrb	r2, [r2, #0]
     392:	3101      	adds	r1, #1
     394:	2a2b      	cmp	r2, #43	; 0x2b
     396:	d00e      	beq.n	3b6 <_vsnprintf+0x72>
     398:	d8f2      	bhi.n	380 <_vsnprintf+0x3c>
     39a:	2a20      	cmp	r2, #32
     39c:	d00d      	beq.n	3ba <_vsnprintf+0x76>
     39e:	2a23      	cmp	r2, #35	; 0x23
     3a0:	d00d      	beq.n	3be <_vsnprintf+0x7a>
     3a2:	0010      	movs	r0, r2
     3a4:	3830      	subs	r0, #48	; 0x30
     3a6:	2809      	cmp	r0, #9
     3a8:	d829      	bhi.n	3fe <_vsnprintf+0xba>
     3aa:	2700      	movs	r7, #0
     3ac:	250a      	movs	r5, #10
     3ae:	e00c      	b.n	3ca <_vsnprintf+0x86>
     3b0:	2202      	movs	r2, #2
     3b2:	4313      	orrs	r3, r2
     3b4:	e7e9      	b.n	38a <_vsnprintf+0x46>
     3b6:	2204      	movs	r2, #4
     3b8:	e7fb      	b.n	3b2 <_vsnprintf+0x6e>
     3ba:	432b      	orrs	r3, r5
     3bc:	e7e5      	b.n	38a <_vsnprintf+0x46>
     3be:	2210      	movs	r2, #16
     3c0:	e7f7      	b.n	3b2 <_vsnprintf+0x6e>
     3c2:	436f      	muls	r7, r5
     3c4:	3f30      	subs	r7, #48	; 0x30
     3c6:	19cf      	adds	r7, r1, r7
     3c8:	900a      	str	r0, [sp, #40]	; 0x28
     3ca:	9a0a      	ldr	r2, [sp, #40]	; 0x28
     3cc:	7811      	ldrb	r1, [r2, #0]
     3ce:	1c50      	adds	r0, r2, #1
     3d0:	000a      	movs	r2, r1
     3d2:	3a30      	subs	r2, #48	; 0x30
     3d4:	2a09      	cmp	r2, #9
     3d6:	d9f4      	bls.n	3c2 <_vsnprintf+0x7e>
     3d8:	2000      	movs	r0, #0
     3da:	9a0a      	ldr	r2, [sp, #40]	; 0x28
     3dc:	9006      	str	r0, [sp, #24]
     3de:	7811      	ldrb	r1, [r2, #0]
     3e0:	292e      	cmp	r1, #46	; 0x2e
     3e2:	d124      	bne.n	42e <_vsnprintf+0xea>
     3e4:	2180      	movs	r1, #128	; 0x80
     3e6:	00c9      	lsls	r1, r1, #3
     3e8:	430b      	orrs	r3, r1
     3ea:	990a      	ldr	r1, [sp, #40]	; 0x28
     3ec:	3201      	adds	r2, #1
     3ee:	7849      	ldrb	r1, [r1, #1]
     3f0:	0008      	movs	r0, r1
     3f2:	3830      	subs	r0, #48	; 0x30
     3f4:	2809      	cmp	r0, #9
     3f6:	d836      	bhi.n	466 <_vsnprintf+0x122>
     3f8:	210a      	movs	r1, #10
     3fa:	468c      	mov	ip, r1
     3fc:	e011      	b.n	422 <_vsnprintf+0xde>
     3fe:	2700      	movs	r7, #0
     400:	2a2a      	cmp	r2, #42	; 0x2a
     402:	d1e9      	bne.n	3d8 <_vsnprintf+0x94>
     404:	cc80      	ldmia	r4!, {r7}
     406:	2f00      	cmp	r7, #0
     408:	da02      	bge.n	410 <_vsnprintf+0xcc>
     40a:	3a28      	subs	r2, #40	; 0x28
     40c:	4313      	orrs	r3, r2
     40e:	427f      	negs	r7, r7
     410:	910a      	str	r1, [sp, #40]	; 0x28
     412:	e7e1      	b.n	3d8 <_vsnprintf+0x94>
     414:	4660      	mov	r0, ip
     416:	9a06      	ldr	r2, [sp, #24]
     418:	4342      	muls	r2, r0
     41a:	3a30      	subs	r2, #48	; 0x30
     41c:	188a      	adds	r2, r1, r2
     41e:	9206      	str	r2, [sp, #24]
     420:	002a      	movs	r2, r5
     422:	7811      	ldrb	r1, [r2, #0]
     424:	1c55      	adds	r5, r2, #1
     426:	0008      	movs	r0, r1
     428:	3830      	subs	r0, #48	; 0x30
     42a:	2809      	cmp	r0, #9
     42c:	d9f2      	bls.n	414 <_vsnprintf+0xd0>
     42e:	7810      	ldrb	r0, [r2, #0]
     430:	1c51      	adds	r1, r2, #1
     432:	286c      	cmp	r0, #108	; 0x6c
     434:	d028      	beq.n	488 <_vsnprintf+0x144>
     436:	d822      	bhi.n	47e <_vsnprintf+0x13a>
     438:	2868      	cmp	r0, #104	; 0x68
     43a:	d02d      	beq.n	498 <_vsnprintf+0x154>
     43c:	286a      	cmp	r0, #106	; 0x6a
     43e:	d033      	beq.n	4a8 <_vsnprintf+0x164>
     440:	0011      	movs	r1, r2
     442:	780d      	ldrb	r5, [r1, #0]
     444:	1c4a      	adds	r2, r1, #1
     446:	920a      	str	r2, [sp, #40]	; 0x28
     448:	2d78      	cmp	r5, #120	; 0x78
     44a:	d900      	bls.n	44e <_vsnprintf+0x10a>
     44c:	e180      	b.n	750 <_vsnprintf+0x40c>
     44e:	2d61      	cmp	r5, #97	; 0x61
     450:	d82d      	bhi.n	4ae <_vsnprintf+0x16a>
     452:	2d25      	cmp	r5, #37	; 0x25
     454:	d100      	bne.n	458 <_vsnprintf+0x114>
     456:	e17b      	b.n	750 <_vsnprintf+0x40c>
     458:	2d58      	cmp	r5, #88	; 0x58
     45a:	d000      	beq.n	45e <_vsnprintf+0x11a>
     45c:	e178      	b.n	750 <_vsnprintf+0x40c>
     45e:	2220      	movs	r2, #32
     460:	4313      	orrs	r3, r2
     462:	2110      	movs	r1, #16
     464:	e050      	b.n	508 <_vsnprintf+0x1c4>
     466:	292a      	cmp	r1, #42	; 0x2a
     468:	d1e1      	bne.n	42e <_vsnprintf+0xea>
     46a:	cc04      	ldmia	r4!, {r2}
     46c:	9206      	str	r2, [sp, #24]
     46e:	43d2      	mvns	r2, r2
     470:	9906      	ldr	r1, [sp, #24]
     472:	17d2      	asrs	r2, r2, #31
     474:	4011      	ands	r1, r2
     476:	9a0a      	ldr	r2, [sp, #40]	; 0x28
     478:	9106      	str	r1, [sp, #24]
     47a:	3202      	adds	r2, #2
     47c:	e7d7      	b.n	42e <_vsnprintf+0xea>
     47e:	287a      	cmp	r0, #122	; 0x7a
     480:	d1de      	bne.n	440 <_vsnprintf+0xfc>
     482:	2280      	movs	r2, #128	; 0x80
     484:	0052      	lsls	r2, r2, #1
     486:	e00b      	b.n	4a0 <_vsnprintf+0x15c>
     488:	7850      	ldrb	r0, [r2, #1]
     48a:	286c      	cmp	r0, #108	; 0x6c
     48c:	d1f9      	bne.n	482 <_vsnprintf+0x13e>
     48e:	21c0      	movs	r1, #192	; 0xc0
     490:	0089      	lsls	r1, r1, #2
     492:	430b      	orrs	r3, r1
     494:	1c91      	adds	r1, r2, #2
     496:	e7d4      	b.n	442 <_vsnprintf+0xfe>
     498:	7850      	ldrb	r0, [r2, #1]
     49a:	2868      	cmp	r0, #104	; 0x68
     49c:	d002      	beq.n	4a4 <_vsnprintf+0x160>
     49e:	2280      	movs	r2, #128	; 0x80
     4a0:	4313      	orrs	r3, r2
     4a2:	e7ce      	b.n	442 <_vsnprintf+0xfe>
     4a4:	21c0      	movs	r1, #192	; 0xc0
     4a6:	e7f4      	b.n	492 <_vsnprintf+0x14e>
     4a8:	2280      	movs	r2, #128	; 0x80
     4aa:	0092      	lsls	r2, r2, #2
     4ac:	e7f8      	b.n	4a0 <_vsnprintf+0x15c>
     4ae:	0028      	movs	r0, r5
     4b0:	3862      	subs	r0, #98	; 0x62
     4b2:	2816      	cmp	r0, #22
     4b4:	d900      	bls.n	4b8 <_vsnprintf+0x174>
     4b6:	e14b      	b.n	750 <_vsnprintf+0x40c>
     4b8:	f00b fa12 	bl	b8e0 <__gnu_thumb1_case_uhi>
     4bc:	00850017 	.word	0x00850017
     4c0:	014a0017 	.word	0x014a0017
     4c4:	014a014a 	.word	0x014a014a
     4c8:	0017014a 	.word	0x0017014a
     4cc:	014a014a 	.word	0x014a014a
     4d0:	014a014a 	.word	0x014a014a
     4d4:	0017014a 	.word	0x0017014a
     4d8:	014a0135 	.word	0x014a0135
     4dc:	00ca014a 	.word	0x00ca014a
     4e0:	0017014a 	.word	0x0017014a
     4e4:	014a014a 	.word	0x014a014a
     4e8:	0017      	.short	0x0017
     4ea:	2d78      	cmp	r5, #120	; 0x78
     4ec:	d0b9      	beq.n	462 <_vsnprintf+0x11e>
     4ee:	2d6f      	cmp	r5, #111	; 0x6f
     4f0:	d100      	bne.n	4f4 <_vsnprintf+0x1b0>
     4f2:	e136      	b.n	762 <_vsnprintf+0x41e>
     4f4:	2d62      	cmp	r5, #98	; 0x62
     4f6:	d100      	bne.n	4fa <_vsnprintf+0x1b6>
     4f8:	e135      	b.n	766 <_vsnprintf+0x422>
     4fa:	2210      	movs	r2, #16
     4fc:	210a      	movs	r1, #10
     4fe:	4393      	bics	r3, r2
     500:	2d69      	cmp	r5, #105	; 0x69
     502:	d003      	beq.n	50c <_vsnprintf+0x1c8>
     504:	2d64      	cmp	r5, #100	; 0x64
     506:	d001      	beq.n	50c <_vsnprintf+0x1c8>
     508:	220c      	movs	r2, #12
     50a:	4393      	bics	r3, r2
     50c:	055a      	lsls	r2, r3, #21
     50e:	d501      	bpl.n	514 <_vsnprintf+0x1d0>
     510:	2201      	movs	r2, #1
     512:	4393      	bics	r3, r2
     514:	2280      	movs	r2, #128	; 0x80
     516:	0092      	lsls	r2, r2, #2
     518:	401a      	ands	r2, r3
     51a:	2d69      	cmp	r5, #105	; 0x69
     51c:	d001      	beq.n	522 <_vsnprintf+0x1de>
     51e:	2d64      	cmp	r5, #100	; 0x64
     520:	d11a      	bne.n	558 <_vsnprintf+0x214>
     522:	2a00      	cmp	r2, #0
     524:	d12d      	bne.n	582 <_vsnprintf+0x23e>
     526:	1d25      	adds	r5, r4, #4
     528:	05da      	lsls	r2, r3, #23
     52a:	d50c      	bpl.n	546 <_vsnprintf+0x202>
     52c:	6822      	ldr	r2, [r4, #0]
     52e:	9305      	str	r3, [sp, #20]
     530:	9b06      	ldr	r3, [sp, #24]
     532:	9704      	str	r7, [sp, #16]
     534:	9303      	str	r3, [sp, #12]
     536:	0fd3      	lsrs	r3, r2, #31
     538:	9301      	str	r3, [sp, #4]
     53a:	17d3      	asrs	r3, r2, #31
     53c:	18d2      	adds	r2, r2, r3
     53e:	9102      	str	r1, [sp, #8]
     540:	405a      	eors	r2, r3
     542:	9200      	str	r2, [sp, #0]
     544:	e015      	b.n	572 <_vsnprintf+0x22e>
     546:	6822      	ldr	r2, [r4, #0]
     548:	0658      	lsls	r0, r3, #25
     54a:	d501      	bpl.n	550 <_vsnprintf+0x20c>
     54c:	b2d2      	uxtb	r2, r2
     54e:	e7ee      	b.n	52e <_vsnprintf+0x1ea>
     550:	0618      	lsls	r0, r3, #24
     552:	d5ec      	bpl.n	52e <_vsnprintf+0x1ea>
     554:	b212      	sxth	r2, r2
     556:	e7ea      	b.n	52e <_vsnprintf+0x1ea>
     558:	2a00      	cmp	r2, #0
     55a:	d112      	bne.n	582 <_vsnprintf+0x23e>
     55c:	1d25      	adds	r5, r4, #4
     55e:	05d8      	lsls	r0, r3, #23
     560:	d521      	bpl.n	5a6 <_vsnprintf+0x262>
     562:	9305      	str	r3, [sp, #20]
     564:	9b06      	ldr	r3, [sp, #24]
     566:	9704      	str	r7, [sp, #16]
     568:	9303      	str	r3, [sp, #12]
     56a:	9102      	str	r1, [sp, #8]
     56c:	9201      	str	r2, [sp, #4]
     56e:	6823      	ldr	r3, [r4, #0]
     570:	9300      	str	r3, [sp, #0]
     572:	0032      	movs	r2, r6
     574:	9b07      	ldr	r3, [sp, #28]
     576:	9909      	ldr	r1, [sp, #36]	; 0x24
     578:	9808      	ldr	r0, [sp, #32]
     57a:	f7ff fdf6 	bl	16a <_ntoa_long>
     57e:	002c      	movs	r4, r5
     580:	0006      	movs	r6, r0
     582:	9b0a      	ldr	r3, [sp, #40]	; 0x28
     584:	7818      	ldrb	r0, [r3, #0]
     586:	2800      	cmp	r0, #0
     588:	d000      	beq.n	58c <_vsnprintf+0x248>
     58a:	e6e8      	b.n	35e <_vsnprintf+0x1a>
     58c:	9b07      	ldr	r3, [sp, #28]
     58e:	0032      	movs	r2, r6
     590:	429e      	cmp	r6, r3
     592:	d300      	bcc.n	596 <_vsnprintf+0x252>
     594:	1e5a      	subs	r2, r3, #1
     596:	2000      	movs	r0, #0
     598:	9b07      	ldr	r3, [sp, #28]
     59a:	9909      	ldr	r1, [sp, #36]	; 0x24
     59c:	9c08      	ldr	r4, [sp, #32]
     59e:	47a0      	blx	r4
     5a0:	0030      	movs	r0, r6
     5a2:	b011      	add	sp, #68	; 0x44
     5a4:	bdf0      	pop	{r4, r5, r6, r7, pc}
     5a6:	6822      	ldr	r2, [r4, #0]
     5a8:	0658      	lsls	r0, r3, #25
     5aa:	d508      	bpl.n	5be <_vsnprintf+0x27a>
     5ac:	b2d2      	uxtb	r2, r2
     5ae:	9305      	str	r3, [sp, #20]
     5b0:	9b06      	ldr	r3, [sp, #24]
     5b2:	9704      	str	r7, [sp, #16]
     5b4:	9303      	str	r3, [sp, #12]
     5b6:	2300      	movs	r3, #0
     5b8:	9102      	str	r1, [sp, #8]
     5ba:	9301      	str	r3, [sp, #4]
     5bc:	e7c1      	b.n	542 <_vsnprintf+0x1fe>
     5be:	0618      	lsls	r0, r3, #24
     5c0:	d5f5      	bpl.n	5ae <_vsnprintf+0x26a>
     5c2:	b292      	uxth	r2, r2
     5c4:	e7f3      	b.n	5ae <_vsnprintf+0x26a>
     5c6:	2202      	movs	r2, #2
     5c8:	401a      	ands	r2, r3
     5ca:	920c      	str	r2, [sp, #48]	; 0x30
     5cc:	2202      	movs	r2, #2
     5ce:	4213      	tst	r3, r2
     5d0:	d029      	beq.n	626 <_vsnprintf+0x2e2>
     5d2:	2301      	movs	r3, #1
     5d4:	9306      	str	r3, [sp, #24]
     5d6:	0023      	movs	r3, r4
     5d8:	cb01      	ldmia	r3!, {r0}
     5da:	0032      	movs	r2, r6
     5dc:	930b      	str	r3, [sp, #44]	; 0x2c
     5de:	9909      	ldr	r1, [sp, #36]	; 0x24
     5e0:	9b07      	ldr	r3, [sp, #28]
     5e2:	1c75      	adds	r5, r6, #1
     5e4:	b2c0      	uxtb	r0, r0
     5e6:	9e08      	ldr	r6, [sp, #32]
     5e8:	47b0      	blx	r6
     5ea:	9b0c      	ldr	r3, [sp, #48]	; 0x30
     5ec:	2b00      	cmp	r3, #0
     5ee:	d02d      	beq.n	64c <_vsnprintf+0x308>
     5f0:	002a      	movs	r2, r5
     5f2:	9e06      	ldr	r6, [sp, #24]
     5f4:	e022      	b.n	63c <_vsnprintf+0x2f8>
     5f6:	46c0      	nop			; (mov r8, r8)
     5f8:	00000169 	.word	0x00000169
     5fc:	2020      	movs	r0, #32
     5fe:	9b07      	ldr	r3, [sp, #28]
     600:	9909      	ldr	r1, [sp, #36]	; 0x24
     602:	9d08      	ldr	r5, [sp, #32]
     604:	47a8      	blx	r5
     606:	9a06      	ldr	r2, [sp, #24]
     608:	1c53      	adds	r3, r2, #1
     60a:	9306      	str	r3, [sp, #24]
     60c:	1b9b      	subs	r3, r3, r6
     60e:	42bb      	cmp	r3, r7
     610:	d3f4      	bcc.n	5fc <_vsnprintf+0x2b8>
     612:	2300      	movs	r3, #0
     614:	429f      	cmp	r7, r3
     616:	d000      	beq.n	61a <_vsnprintf+0x2d6>
     618:	1e7b      	subs	r3, r7, #1
     61a:	18f6      	adds	r6, r6, r3
     61c:	2302      	movs	r3, #2
     61e:	2f00      	cmp	r7, #0
     620:	d0d8      	beq.n	5d4 <_vsnprintf+0x290>
     622:	1c7b      	adds	r3, r7, #1
     624:	e7d6      	b.n	5d4 <_vsnprintf+0x290>
     626:	0032      	movs	r2, r6
     628:	e7ee      	b.n	608 <_vsnprintf+0x2c4>
     62a:	1c53      	adds	r3, r2, #1
     62c:	930c      	str	r3, [sp, #48]	; 0x30
     62e:	2020      	movs	r0, #32
     630:	9b07      	ldr	r3, [sp, #28]
     632:	9909      	ldr	r1, [sp, #36]	; 0x24
     634:	9c08      	ldr	r4, [sp, #32]
     636:	47a0      	blx	r4
     638:	9a0c      	ldr	r2, [sp, #48]	; 0x30
     63a:	3601      	adds	r6, #1
     63c:	42be      	cmp	r6, r7
     63e:	d3f4      	bcc.n	62a <_vsnprintf+0x2e6>
     640:	9a06      	ldr	r2, [sp, #24]
     642:	2300      	movs	r3, #0
     644:	4297      	cmp	r7, r2
     646:	d300      	bcc.n	64a <_vsnprintf+0x306>
     648:	1abb      	subs	r3, r7, r2
     64a:	18ed      	adds	r5, r5, r3
     64c:	9c0b      	ldr	r4, [sp, #44]	; 0x2c
     64e:	e691      	b.n	374 <_vsnprintf+0x30>
     650:	0022      	movs	r2, r4
     652:	ca02      	ldmia	r2!, {r1}
     654:	920c      	str	r2, [sp, #48]	; 0x30
     656:	9a06      	ldr	r2, [sp, #24]
     658:	910b      	str	r1, [sp, #44]	; 0x2c
     65a:	2a00      	cmp	r2, #0
     65c:	d101      	bne.n	662 <_vsnprintf+0x31e>
     65e:	2201      	movs	r2, #1
     660:	4252      	negs	r2, r2
     662:	990b      	ldr	r1, [sp, #44]	; 0x2c
     664:	000c      	movs	r4, r1
     666:	188a      	adds	r2, r1, r2
     668:	7821      	ldrb	r1, [r4, #0]
     66a:	2900      	cmp	r1, #0
     66c:	d001      	beq.n	672 <_vsnprintf+0x32e>
     66e:	42a2      	cmp	r2, r4
     670:	d114      	bne.n	69c <_vsnprintf+0x358>
     672:	9a0b      	ldr	r2, [sp, #44]	; 0x2c
     674:	0019      	movs	r1, r3
     676:	1aa4      	subs	r4, r4, r2
     678:	2280      	movs	r2, #128	; 0x80
     67a:	00d2      	lsls	r2, r2, #3
     67c:	4011      	ands	r1, r2
     67e:	910d      	str	r1, [sp, #52]	; 0x34
     680:	4213      	tst	r3, r2
     682:	d003      	beq.n	68c <_vsnprintf+0x348>
     684:	9a06      	ldr	r2, [sp, #24]
     686:	4294      	cmp	r4, r2
     688:	d900      	bls.n	68c <_vsnprintf+0x348>
     68a:	0014      	movs	r4, r2
     68c:	2202      	movs	r2, #2
     68e:	401a      	ands	r2, r3
     690:	920e      	str	r2, [sp, #56]	; 0x38
     692:	2202      	movs	r2, #2
     694:	4213      	tst	r3, r2
     696:	d116      	bne.n	6c6 <_vsnprintf+0x382>
     698:	0032      	movs	r2, r6
     69a:	e009      	b.n	6b0 <_vsnprintf+0x36c>
     69c:	3401      	adds	r4, #1
     69e:	e7e3      	b.n	668 <_vsnprintf+0x324>
     6a0:	1c53      	adds	r3, r2, #1
     6a2:	930f      	str	r3, [sp, #60]	; 0x3c
     6a4:	2020      	movs	r0, #32
     6a6:	9b07      	ldr	r3, [sp, #28]
     6a8:	9909      	ldr	r1, [sp, #36]	; 0x24
     6aa:	9d08      	ldr	r5, [sp, #32]
     6ac:	47a8      	blx	r5
     6ae:	9a0f      	ldr	r2, [sp, #60]	; 0x3c
     6b0:	1ba3      	subs	r3, r4, r6
     6b2:	189b      	adds	r3, r3, r2
     6b4:	429f      	cmp	r7, r3
     6b6:	d8f3      	bhi.n	6a0 <_vsnprintf+0x35c>
     6b8:	2300      	movs	r3, #0
     6ba:	42a7      	cmp	r7, r4
     6bc:	d300      	bcc.n	6c0 <_vsnprintf+0x37c>
     6be:	1b3b      	subs	r3, r7, r4
     6c0:	3401      	adds	r4, #1
     6c2:	18f6      	adds	r6, r6, r3
     6c4:	191c      	adds	r4, r3, r4
     6c6:	0035      	movs	r5, r6
     6c8:	e008      	b.n	6dc <_vsnprintf+0x398>
     6ca:	9306      	str	r3, [sp, #24]
     6cc:	1c6b      	adds	r3, r5, #1
     6ce:	002a      	movs	r2, r5
     6d0:	930f      	str	r3, [sp, #60]	; 0x3c
     6d2:	9d08      	ldr	r5, [sp, #32]
     6d4:	9b07      	ldr	r3, [sp, #28]
     6d6:	9909      	ldr	r1, [sp, #36]	; 0x24
     6d8:	47a8      	blx	r5
     6da:	9d0f      	ldr	r5, [sp, #60]	; 0x3c
     6dc:	9b0b      	ldr	r3, [sp, #44]	; 0x2c
     6de:	1b9b      	subs	r3, r3, r6
     6e0:	5d58      	ldrb	r0, [r3, r5]
     6e2:	2800      	cmp	r0, #0
     6e4:	d007      	beq.n	6f6 <_vsnprintf+0x3b2>
     6e6:	9b0d      	ldr	r3, [sp, #52]	; 0x34
     6e8:	2b00      	cmp	r3, #0
     6ea:	d0ef      	beq.n	6cc <_vsnprintf+0x388>
     6ec:	9b06      	ldr	r3, [sp, #24]
     6ee:	9a06      	ldr	r2, [sp, #24]
     6f0:	3b01      	subs	r3, #1
     6f2:	2a00      	cmp	r2, #0
     6f4:	d1e9      	bne.n	6ca <_vsnprintf+0x386>
     6f6:	9b0e      	ldr	r3, [sp, #56]	; 0x38
     6f8:	2b00      	cmp	r3, #0
     6fa:	d012      	beq.n	722 <_vsnprintf+0x3de>
     6fc:	002a      	movs	r2, r5
     6fe:	e007      	b.n	710 <_vsnprintf+0x3cc>
     700:	1c53      	adds	r3, r2, #1
     702:	9306      	str	r3, [sp, #24]
     704:	2020      	movs	r0, #32
     706:	9b07      	ldr	r3, [sp, #28]
     708:	9909      	ldr	r1, [sp, #36]	; 0x24
     70a:	9e08      	ldr	r6, [sp, #32]
     70c:	47b0      	blx	r6
     70e:	9a06      	ldr	r2, [sp, #24]
     710:	1b63      	subs	r3, r4, r5
     712:	18d3      	adds	r3, r2, r3
     714:	429f      	cmp	r7, r3
     716:	d8f3      	bhi.n	700 <_vsnprintf+0x3bc>
     718:	2300      	movs	r3, #0
     71a:	42a7      	cmp	r7, r4
     71c:	d300      	bcc.n	720 <_vsnprintf+0x3dc>
     71e:	1b3b      	subs	r3, r7, r4
     720:	18ed      	adds	r5, r5, r3
     722:	9c0c      	ldr	r4, [sp, #48]	; 0x30
     724:	e626      	b.n	374 <_vsnprintf+0x30>
     726:	2221      	movs	r2, #33	; 0x21
     728:	4313      	orrs	r3, r2
     72a:	9305      	str	r3, [sp, #20]
     72c:	2308      	movs	r3, #8
     72e:	9304      	str	r3, [sp, #16]
     730:	9b06      	ldr	r3, [sp, #24]
     732:	0032      	movs	r2, r6
     734:	9303      	str	r3, [sp, #12]
     736:	2310      	movs	r3, #16
     738:	9302      	str	r3, [sp, #8]
     73a:	2300      	movs	r3, #0
     73c:	9301      	str	r3, [sp, #4]
     73e:	cc08      	ldmia	r4!, {r3}
     740:	9909      	ldr	r1, [sp, #36]	; 0x24
     742:	9300      	str	r3, [sp, #0]
     744:	9808      	ldr	r0, [sp, #32]
     746:	9b07      	ldr	r3, [sp, #28]
     748:	f7ff fd0f 	bl	16a <_ntoa_long>
     74c:	0006      	movs	r6, r0
     74e:	e718      	b.n	582 <_vsnprintf+0x23e>
     750:	0032      	movs	r2, r6
     752:	0028      	movs	r0, r5
     754:	9b07      	ldr	r3, [sp, #28]
     756:	9909      	ldr	r1, [sp, #36]	; 0x24
     758:	9d08      	ldr	r5, [sp, #32]
     75a:	1c77      	adds	r7, r6, #1
     75c:	47a8      	blx	r5
     75e:	003e      	movs	r6, r7
     760:	e70f      	b.n	582 <_vsnprintf+0x23e>
     762:	2108      	movs	r1, #8
     764:	e6d0      	b.n	508 <_vsnprintf+0x1c4>
     766:	2102      	movs	r1, #2
     768:	e6ce      	b.n	508 <_vsnprintf+0x1c4>

0000076a <printf_>:
     76a:	b40f      	push	{r0, r1, r2, r3}
     76c:	b51f      	push	{r0, r1, r2, r3, r4, lr}
     76e:	2201      	movs	r2, #1
     770:	a906      	add	r1, sp, #24
     772:	c908      	ldmia	r1!, {r3}
     774:	4252      	negs	r2, r2
     776:	9103      	str	r1, [sp, #12]
     778:	9100      	str	r1, [sp, #0]
     77a:	4804      	ldr	r0, [pc, #16]	; (78c <printf_+0x22>)
     77c:	a902      	add	r1, sp, #8
     77e:	f7ff fde1 	bl	344 <_vsnprintf>
     782:	b005      	add	sp, #20
     784:	bc08      	pop	{r3}
     786:	b004      	add	sp, #16
     788:	4718      	bx	r3
     78a:	46c0      	nop			; (mov r8, r8)
     78c:	0000032b 	.word	0x0000032b

00000790 <sprintf_>:
     790:	b40e      	push	{r1, r2, r3}
     792:	2201      	movs	r2, #1
     794:	b510      	push	{r4, lr}
     796:	b085      	sub	sp, #20
     798:	ac07      	add	r4, sp, #28
     79a:	cc08      	ldmia	r4!, {r3}
     79c:	0001      	movs	r1, r0
     79e:	9400      	str	r4, [sp, #0]
     7a0:	4252      	negs	r2, r2
     7a2:	4804      	ldr	r0, [pc, #16]	; (7b4 <sprintf_+0x24>)
     7a4:	9403      	str	r4, [sp, #12]
     7a6:	f7ff fdcd 	bl	344 <_vsnprintf>
     7aa:	b005      	add	sp, #20
     7ac:	bc10      	pop	{r4}
     7ae:	bc08      	pop	{r3}
     7b0:	b003      	add	sp, #12
     7b2:	4718      	bx	r3
     7b4:	00000161 	.word	0x00000161

000007b8 <snprintf_>:
     7b8:	b40c      	push	{r2, r3}
     7ba:	b51f      	push	{r0, r1, r2, r3, r4, lr}
     7bc:	ac06      	add	r4, sp, #24
     7be:	cc08      	ldmia	r4!, {r3}
     7c0:	000a      	movs	r2, r1
     7c2:	9400      	str	r4, [sp, #0]
     7c4:	0001      	movs	r1, r0
     7c6:	4804      	ldr	r0, [pc, #16]	; (7d8 <snprintf_+0x20>)
     7c8:	9403      	str	r4, [sp, #12]
     7ca:	f7ff fdbb 	bl	344 <_vsnprintf>
     7ce:	b004      	add	sp, #16
     7d0:	bc10      	pop	{r4}
     7d2:	bc08      	pop	{r3}
     7d4:	b002      	add	sp, #8
     7d6:	4718      	bx	r3
     7d8:	00000161 	.word	0x00000161

000007dc <vprintf_>:
     7dc:	b51f      	push	{r0, r1, r2, r3, r4, lr}
     7de:	2201      	movs	r2, #1
     7e0:	0003      	movs	r3, r0
     7e2:	9100      	str	r1, [sp, #0]
     7e4:	4252      	negs	r2, r2
     7e6:	a903      	add	r1, sp, #12
     7e8:	4802      	ldr	r0, [pc, #8]	; (7f4 <vprintf_+0x18>)
     7ea:	f7ff fdab 	bl	344 <_vsnprintf>
     7ee:	b005      	add	sp, #20
     7f0:	bd00      	pop	{pc}
     7f2:	46c0      	nop			; (mov r8, r8)
     7f4:	0000032b 	.word	0x0000032b

000007f8 <vsnprintf_>:
     7f8:	b507      	push	{r0, r1, r2, lr}
     7fa:	9300      	str	r3, [sp, #0]
     7fc:	0013      	movs	r3, r2
     7fe:	000a      	movs	r2, r1
     800:	0001      	movs	r1, r0
     802:	4802      	ldr	r0, [pc, #8]	; (80c <vsnprintf_+0x14>)
     804:	f7ff fd9e 	bl	344 <_vsnprintf>
     808:	bd0e      	pop	{r1, r2, r3, pc}
     80a:	46c0      	nop			; (mov r8, r8)
     80c:	00000161 	.word	0x00000161

00000810 <fctprintf>:
     810:	b40c      	push	{r2, r3}
     812:	2201      	movs	r2, #1
     814:	b510      	push	{r4, lr}
     816:	b086      	sub	sp, #24
     818:	ac08      	add	r4, sp, #32
     81a:	cc08      	ldmia	r4!, {r3}
     81c:	9004      	str	r0, [sp, #16]
     81e:	9105      	str	r1, [sp, #20]
     820:	9400      	str	r4, [sp, #0]
     822:	4252      	negs	r2, r2
     824:	a904      	add	r1, sp, #16
     826:	4804      	ldr	r0, [pc, #16]	; (838 <fctprintf+0x28>)
     828:	9403      	str	r4, [sp, #12]
     82a:	f7ff fd8b 	bl	344 <_vsnprintf>
     82e:	b006      	add	sp, #24
     830:	bc10      	pop	{r4}
     832:	bc08      	pop	{r3}
     834:	b002      	add	sp, #8
     836:	4718      	bx	r3
     838:	00000337 	.word	0x00000337

0000083c <ADC_GetChannelNumber>:
     83c:	b202      	sxth	r2, r0
     83e:	0003      	movs	r3, r0
     840:	200f      	movs	r0, #15
     842:	2a00      	cmp	r2, #0
     844:	db28      	blt.n	898 <ADC_GetChannelNumber+0x5c>
     846:	3801      	subs	r0, #1
     848:	045a      	lsls	r2, r3, #17
     84a:	d425      	bmi.n	898 <ADC_GetChannelNumber+0x5c>
     84c:	3801      	subs	r0, #1
     84e:	049a      	lsls	r2, r3, #18
     850:	d422      	bmi.n	898 <ADC_GetChannelNumber+0x5c>
     852:	3801      	subs	r0, #1
     854:	04da      	lsls	r2, r3, #19
     856:	d41f      	bmi.n	898 <ADC_GetChannelNumber+0x5c>
     858:	3801      	subs	r0, #1
     85a:	051a      	lsls	r2, r3, #20
     85c:	d41c      	bmi.n	898 <ADC_GetChannelNumber+0x5c>
     85e:	3801      	subs	r0, #1
     860:	055a      	lsls	r2, r3, #21
     862:	d419      	bmi.n	898 <ADC_GetChannelNumber+0x5c>
     864:	3801      	subs	r0, #1
     866:	059a      	lsls	r2, r3, #22
     868:	d416      	bmi.n	898 <ADC_GetChannelNumber+0x5c>
     86a:	3801      	subs	r0, #1
     86c:	05da      	lsls	r2, r3, #23
     86e:	d413      	bmi.n	898 <ADC_GetChannelNumber+0x5c>
     870:	3801      	subs	r0, #1
     872:	061a      	lsls	r2, r3, #24
     874:	d410      	bmi.n	898 <ADC_GetChannelNumber+0x5c>
     876:	3801      	subs	r0, #1
     878:	065a      	lsls	r2, r3, #25
     87a:	d40d      	bmi.n	898 <ADC_GetChannelNumber+0x5c>
     87c:	3801      	subs	r0, #1
     87e:	069a      	lsls	r2, r3, #26
     880:	d40a      	bmi.n	898 <ADC_GetChannelNumber+0x5c>
     882:	3801      	subs	r0, #1
     884:	06da      	lsls	r2, r3, #27
     886:	d407      	bmi.n	898 <ADC_GetChannelNumber+0x5c>
     888:	3801      	subs	r0, #1
     88a:	071a      	lsls	r2, r3, #28
     88c:	d404      	bmi.n	898 <ADC_GetChannelNumber+0x5c>
     88e:	3801      	subs	r0, #1
     890:	075a      	lsls	r2, r3, #29
     892:	d401      	bmi.n	898 <ADC_GetChannelNumber+0x5c>
     894:	079b      	lsls	r3, r3, #30
     896:	0fd8      	lsrs	r0, r3, #31
     898:	4770      	bx	lr

0000089a <ADC_Disable>:
     89a:	4a03      	ldr	r2, [pc, #12]	; (8a8 <ADC_Disable+0xe>)
     89c:	4903      	ldr	r1, [pc, #12]	; (8ac <ADC_Disable+0x12>)
     89e:	6813      	ldr	r3, [r2, #0]
     8a0:	400b      	ands	r3, r1
     8a2:	6013      	str	r3, [r2, #0]
     8a4:	4770      	bx	lr
     8a6:	46c0      	nop			; (mov r8, r8)
     8a8:	400ba000 	.word	0x400ba000
     8ac:	f7ffffff 	.word	0xf7ffffff

000008b0 <ADC_Enable>:
     8b0:	2380      	movs	r3, #128	; 0x80
     8b2:	4a03      	ldr	r2, [pc, #12]	; (8c0 <ADC_Enable+0x10>)
     8b4:	051b      	lsls	r3, r3, #20
     8b6:	6811      	ldr	r1, [r2, #0]
     8b8:	430b      	orrs	r3, r1
     8ba:	6013      	str	r3, [r2, #0]
     8bc:	4770      	bx	lr
     8be:	46c0      	nop			; (mov r8, r8)
     8c0:	400ba000 	.word	0x400ba000

000008c4 <ADC_SoftReset>:
     8c4:	2204      	movs	r2, #4
     8c6:	4b04      	ldr	r3, [pc, #16]	; (8d8 <ADC_SoftReset+0x14>)
     8c8:	6819      	ldr	r1, [r3, #0]
     8ca:	4391      	bics	r1, r2
     8cc:	6019      	str	r1, [r3, #0]
     8ce:	6819      	ldr	r1, [r3, #0]
     8d0:	430a      	orrs	r2, r1
     8d2:	601a      	str	r2, [r3, #0]
     8d4:	4770      	bx	lr
     8d6:	46c0      	nop			; (mov r8, r8)
     8d8:	400ba004 	.word	0x400ba004

000008dc <ADC_GetClockConfig>:
     8dc:	2380      	movs	r3, #128	; 0x80
     8de:	21ff      	movs	r1, #255	; 0xff
     8e0:	05db      	lsls	r3, r3, #23
     8e2:	681b      	ldr	r3, [r3, #0]
     8e4:	4a05      	ldr	r2, [pc, #20]	; (8fc <ADC_GetClockConfig+0x20>)
     8e6:	0ad8      	lsrs	r0, r3, #11
     8e8:	01c0      	lsls	r0, r0, #7
     8ea:	4008      	ands	r0, r1
     8ec:	21c0      	movs	r1, #192	; 0xc0
     8ee:	401a      	ands	r2, r3
     8f0:	0109      	lsls	r1, r1, #4
     8f2:	00db      	lsls	r3, r3, #3
     8f4:	400b      	ands	r3, r1
     8f6:	4318      	orrs	r0, r3
     8f8:	4310      	orrs	r0, r2
     8fa:	4770      	bx	lr
     8fc:	fffff67f 	.word	0xfffff67f

00000900 <ADC_Configure>:
     900:	2380      	movs	r3, #128	; 0x80
     902:	4a48      	ldr	r2, [pc, #288]	; (a24 <ADC_Configure+0x124>)
     904:	049b      	lsls	r3, r3, #18
     906:	6811      	ldr	r1, [r2, #0]
     908:	b510      	push	{r4, lr}
     90a:	430b      	orrs	r3, r1
     90c:	0004      	movs	r4, r0
     90e:	6013      	str	r3, [r2, #0]
     910:	f7ff ffc3 	bl	89a <ADC_Disable>
     914:	f7ff ffe2 	bl	8dc <ADC_GetClockConfig>
     918:	22c0      	movs	r2, #192	; 0xc0
     91a:	7823      	ldrb	r3, [r4, #0]
     91c:	0112      	lsls	r2, r2, #4
     91e:	029b      	lsls	r3, r3, #10
     920:	4013      	ands	r3, r2
     922:	4a41      	ldr	r2, [pc, #260]	; (a28 <ADC_Configure+0x128>)
     924:	4010      	ands	r0, r2
     926:	2280      	movs	r2, #128	; 0x80
     928:	4303      	orrs	r3, r0
     92a:	05d2      	lsls	r2, r2, #23
     92c:	6013      	str	r3, [r2, #0]
     92e:	8861      	ldrh	r1, [r4, #2]
     930:	4a3e      	ldr	r2, [pc, #248]	; (a2c <ADC_Configure+0x12c>)
     932:	0449      	lsls	r1, r1, #17
     934:	6810      	ldr	r0, [r2, #0]
     936:	0c4b      	lsrs	r3, r1, #17
     938:	493d      	ldr	r1, [pc, #244]	; (a30 <ADC_Configure+0x130>)
     93a:	4001      	ands	r1, r0
     93c:	20c0      	movs	r0, #192	; 0xc0
     93e:	430b      	orrs	r3, r1
     940:	7921      	ldrb	r1, [r4, #4]
     942:	0280      	lsls	r0, r0, #10
     944:	0409      	lsls	r1, r1, #16
     946:	4001      	ands	r1, r0
     948:	2080      	movs	r0, #128	; 0x80
     94a:	430b      	orrs	r3, r1
     94c:	7961      	ldrb	r1, [r4, #5]
     94e:	02c0      	lsls	r0, r0, #11
     950:	0489      	lsls	r1, r1, #18
     952:	4001      	ands	r1, r0
     954:	20e0      	movs	r0, #224	; 0xe0
     956:	430b      	orrs	r3, r1
     958:	7a21      	ldrb	r1, [r4, #8]
     95a:	0380      	lsls	r0, r0, #14
     95c:	04c9      	lsls	r1, r1, #19
     95e:	4001      	ands	r1, r0
     960:	2080      	movs	r0, #128	; 0x80
     962:	430b      	orrs	r3, r1
     964:	79a1      	ldrb	r1, [r4, #6]
     966:	03c0      	lsls	r0, r0, #15
     968:	0589      	lsls	r1, r1, #22
     96a:	4001      	ands	r1, r0
     96c:	2080      	movs	r0, #128	; 0x80
     96e:	430b      	orrs	r3, r1
     970:	79e1      	ldrb	r1, [r4, #7]
     972:	0400      	lsls	r0, r0, #16
     974:	05c9      	lsls	r1, r1, #23
     976:	4001      	ands	r1, r0
     978:	20e0      	movs	r0, #224	; 0xe0
     97a:	430b      	orrs	r3, r1
     97c:	7a61      	ldrb	r1, [r4, #9]
     97e:	04c0      	lsls	r0, r0, #19
     980:	0609      	lsls	r1, r1, #24
     982:	4001      	ands	r1, r0
     984:	2080      	movs	r0, #128	; 0x80
     986:	430b      	orrs	r3, r1
     988:	7aa1      	ldrb	r1, [r4, #10]
     98a:	0540      	lsls	r0, r0, #21
     98c:	0709      	lsls	r1, r1, #28
     98e:	4001      	ands	r1, r0
     990:	2080      	movs	r0, #128	; 0x80
     992:	430b      	orrs	r3, r1
     994:	7c21      	ldrb	r1, [r4, #16]
     996:	0580      	lsls	r0, r0, #22
     998:	0749      	lsls	r1, r1, #29
     99a:	4001      	ands	r1, r0
     99c:	430b      	orrs	r3, r1
     99e:	6013      	str	r3, [r2, #0]
     9a0:	89a2      	ldrh	r2, [r4, #12]
     9a2:	4b24      	ldr	r3, [pc, #144]	; (a34 <ADC_Configure+0x134>)
     9a4:	601a      	str	r2, [r3, #0]
     9a6:	7ba2      	ldrb	r2, [r4, #14]
     9a8:	4b23      	ldr	r3, [pc, #140]	; (a38 <ADC_Configure+0x138>)
     9aa:	2a00      	cmp	r2, #0
     9ac:	d02f      	beq.n	a0e <ADC_Configure+0x10e>
     9ae:	2280      	movs	r2, #128	; 0x80
     9b0:	6819      	ldr	r1, [r3, #0]
     9b2:	0252      	lsls	r2, r2, #9
     9b4:	430a      	orrs	r2, r1
     9b6:	601a      	str	r2, [r3, #0]
     9b8:	7be2      	ldrb	r2, [r4, #15]
     9ba:	4b20      	ldr	r3, [pc, #128]	; (a3c <ADC_Configure+0x13c>)
     9bc:	2a00      	cmp	r2, #0
     9be:	d02a      	beq.n	a16 <ADC_Configure+0x116>
     9c0:	2280      	movs	r2, #128	; 0x80
     9c2:	6819      	ldr	r1, [r3, #0]
     9c4:	0252      	lsls	r2, r2, #9
     9c6:	430a      	orrs	r2, r1
     9c8:	601a      	str	r2, [r3, #0]
     9ca:	2201      	movs	r2, #1
     9cc:	2080      	movs	r0, #128	; 0x80
     9ce:	4b1c      	ldr	r3, [pc, #112]	; (a40 <ADC_Configure+0x140>)
     9d0:	491c      	ldr	r1, [pc, #112]	; (a44 <ADC_Configure+0x144>)
     9d2:	4252      	negs	r2, r2
     9d4:	601a      	str	r2, [r3, #0]
     9d6:	680b      	ldr	r3, [r1, #0]
     9d8:	8a62      	ldrh	r2, [r4, #18]
     9da:	0c9b      	lsrs	r3, r3, #18
     9dc:	049b      	lsls	r3, r3, #18
     9de:	4313      	orrs	r3, r2
     9e0:	7d62      	ldrb	r2, [r4, #21]
     9e2:	0240      	lsls	r0, r0, #9
     9e4:	0412      	lsls	r2, r2, #16
     9e6:	4002      	ands	r2, r0
     9e8:	2080      	movs	r0, #128	; 0x80
     9ea:	4313      	orrs	r3, r2
     9ec:	7d22      	ldrb	r2, [r4, #20]
     9ee:	0280      	lsls	r0, r0, #10
     9f0:	0452      	lsls	r2, r2, #17
     9f2:	4002      	ands	r2, r0
     9f4:	4313      	orrs	r3, r2
     9f6:	600b      	str	r3, [r1, #0]
     9f8:	680a      	ldr	r2, [r1, #0]
     9fa:	2310      	movs	r3, #16
     9fc:	2a00      	cmp	r2, #0
     9fe:	d10e      	bne.n	a1e <ADC_Configure+0x11e>
     a00:	4a11      	ldr	r2, [pc, #68]	; (a48 <ADC_Configure+0x148>)
     a02:	67d3      	str	r3, [r2, #124]	; 0x7c
     a04:	f3bf 8f4f 	dsb	sy
     a08:	f3bf 8f6f 	isb	sy
     a0c:	bd10      	pop	{r4, pc}
     a0e:	681a      	ldr	r2, [r3, #0]
     a10:	490e      	ldr	r1, [pc, #56]	; (a4c <ADC_Configure+0x14c>)
     a12:	400a      	ands	r2, r1
     a14:	e7cf      	b.n	9b6 <ADC_Configure+0xb6>
     a16:	681a      	ldr	r2, [r3, #0]
     a18:	490c      	ldr	r1, [pc, #48]	; (a4c <ADC_Configure+0x14c>)
     a1a:	400a      	ands	r2, r1
     a1c:	e7d4      	b.n	9c8 <ADC_Configure+0xc8>
     a1e:	4a0c      	ldr	r2, [pc, #48]	; (a50 <ADC_Configure+0x150>)
     a20:	6013      	str	r3, [r2, #0]
     a22:	e7f3      	b.n	a0c <ADC_Configure+0x10c>
     a24:	40000008 	.word	0x40000008
     a28:	fffff3ff 	.word	0xfffff3ff
     a2c:	400ba000 	.word	0x400ba000
     a30:	c8008000 	.word	0xc8008000
     a34:	400ba0b0 	.word	0x400ba0b0
     a38:	400ba0f0 	.word	0x400ba0f0
     a3c:	400ba0f4 	.word	0x400ba0f4
     a40:	400ba00c 	.word	0x400ba00c
     a44:	400ba008 	.word	0x400ba008
     a48:	e000e104 	.word	0xe000e104
     a4c:	fffeffff 	.word	0xfffeffff
     a50:	e000e100 	.word	0xe000e100

00000a54 <ADC_Start>:
     a54:	2301      	movs	r3, #1
     a56:	4a02      	ldr	r2, [pc, #8]	; (a60 <ADC_Start+0xc>)
     a58:	6811      	ldr	r1, [r2, #0]
     a5a:	430b      	orrs	r3, r1
     a5c:	6013      	str	r3, [r2, #0]
     a5e:	4770      	bx	lr
     a60:	400ba004 	.word	0x400ba004

00000a64 <ADC_CheckEndOfConversion>:
     a64:	b510      	push	{r4, lr}
     a66:	f7ff fee9 	bl	83c <ADC_GetChannelNumber>
     a6a:	4b03      	ldr	r3, [pc, #12]	; (a78 <ADC_CheckEndOfConversion+0x14>)
     a6c:	00c0      	lsls	r0, r0, #3
     a6e:	18c0      	adds	r0, r0, r3
     a70:	2301      	movs	r3, #1
     a72:	6800      	ldr	r0, [r0, #0]
     a74:	4018      	ands	r0, r3
     a76:	bd10      	pop	{r4, pc}
     a78:	400ba010 	.word	0x400ba010

00000a7c <ADC_GetValue>:
     a7c:	b510      	push	{r4, lr}
     a7e:	f7ff fedd 	bl	83c <ADC_GetChannelNumber>
     a82:	2301      	movs	r3, #1
     a84:	4083      	lsls	r3, r0
     a86:	4a04      	ldr	r2, [pc, #16]	; (a98 <ADC_GetValue+0x1c>)
     a88:	00c0      	lsls	r0, r0, #3
     a8a:	6013      	str	r3, [r2, #0]
     a8c:	4b03      	ldr	r3, [pc, #12]	; (a9c <ADC_GetValue+0x20>)
     a8e:	18c0      	adds	r0, r0, r3
     a90:	6840      	ldr	r0, [r0, #4]
     a92:	0500      	lsls	r0, r0, #20
     a94:	0d00      	lsrs	r0, r0, #20
     a96:	bd10      	pop	{r4, pc}
     a98:	400ba00c 	.word	0x400ba00c
     a9c:	400ba010 	.word	0x400ba010

00000aa0 <BACKLIGHT_TurnOn>:
     aa0:	b510      	push	{r4, lr}
     aa2:	4c10      	ldr	r4, [pc, #64]	; (ae4 <BACKLIGHT_TurnOn+0x44>)
     aa4:	7f63      	ldrb	r3, [r4, #29]
     aa6:	2b00      	cmp	r3, #0
     aa8:	d013      	beq.n	ad2 <BACKLIGHT_TurnOn+0x32>
     aaa:	480f      	ldr	r0, [pc, #60]	; (ae8 <BACKLIGHT_TurnOn+0x48>)
     aac:	2106      	movs	r1, #6
     aae:	f000 fef7 	bl	18a0 <GPIO_SetBit>
     ab2:	7f60      	ldrb	r0, [r4, #29]
     ab4:	2205      	movs	r2, #5
     ab6:	3802      	subs	r0, #2
     ab8:	4b0c      	ldr	r3, [pc, #48]	; (aec <BACKLIGHT_TurnOn+0x4c>)
     aba:	2804      	cmp	r0, #4
     abc:	d805      	bhi.n	aca <BACKLIGHT_TurnOn+0x2a>
     abe:	f00a fefb 	bl	b8b8 <__gnu_thumb1_case_uqi>
     ac2:	0903      	.short	0x0903
     ac4:	0d0b      	.short	0x0d0b
     ac6:	0f          	.byte	0x0f
     ac7:	00          	.byte	0x00
     ac8:	220a      	movs	r2, #10
     aca:	701a      	strb	r2, [r3, #0]
     acc:	781a      	ldrb	r2, [r3, #0]
     ace:	0052      	lsls	r2, r2, #1
     ad0:	701a      	strb	r2, [r3, #0]
     ad2:	bd10      	pop	{r4, pc}
     ad4:	2214      	movs	r2, #20
     ad6:	e7f8      	b.n	aca <BACKLIGHT_TurnOn+0x2a>
     ad8:	223c      	movs	r2, #60	; 0x3c
     ada:	e7f6      	b.n	aca <BACKLIGHT_TurnOn+0x2a>
     adc:	2278      	movs	r2, #120	; 0x78
     ade:	e7f4      	b.n	aca <BACKLIGHT_TurnOn+0x2a>
     ae0:	2200      	movs	r2, #0
     ae2:	e7f2      	b.n	aca <BACKLIGHT_TurnOn+0x2a>
     ae4:	200011f0 	.word	0x200011f0
     ae8:	40060800 	.word	0x40060800
     aec:	2000063c 	.word	0x2000063c

00000af0 <BK4819_WriteU8>:
     af0:	b570      	push	{r4, r5, r6, lr}
     af2:	2101      	movs	r1, #1
     af4:	0004      	movs	r4, r0
     af6:	4813      	ldr	r0, [pc, #76]	; (b44 <BK4819_WriteU8+0x54>)
     af8:	f000 fec1 	bl	187e <GPIO_ClearBit>
     afc:	2508      	movs	r5, #8
     afe:	2601      	movs	r6, #1
     b00:	b263      	sxtb	r3, r4
     b02:	2102      	movs	r1, #2
     b04:	480f      	ldr	r0, [pc, #60]	; (b44 <BK4819_WriteU8+0x54>)
     b06:	2b00      	cmp	r3, #0
     b08:	db19      	blt.n	b3e <BK4819_WriteU8+0x4e>
     b0a:	f000 feb8 	bl	187e <GPIO_ClearBit>
     b0e:	0030      	movs	r0, r6
     b10:	f001 fada 	bl	20c8 <SYSTICK_DelayUs>
     b14:	0031      	movs	r1, r6
     b16:	480b      	ldr	r0, [pc, #44]	; (b44 <BK4819_WriteU8+0x54>)
     b18:	f000 fec2 	bl	18a0 <GPIO_SetBit>
     b1c:	0030      	movs	r0, r6
     b1e:	f001 fad3 	bl	20c8 <SYSTICK_DelayUs>
     b22:	3d01      	subs	r5, #1
     b24:	0031      	movs	r1, r6
     b26:	4807      	ldr	r0, [pc, #28]	; (b44 <BK4819_WriteU8+0x54>)
     b28:	f000 fea9 	bl	187e <GPIO_ClearBit>
     b2c:	0064      	lsls	r4, r4, #1
     b2e:	0030      	movs	r0, r6
     b30:	b2ed      	uxtb	r5, r5
     b32:	f001 fac9 	bl	20c8 <SYSTICK_DelayUs>
     b36:	b2e4      	uxtb	r4, r4
     b38:	2d00      	cmp	r5, #0
     b3a:	d1e1      	bne.n	b00 <BK4819_WriteU8+0x10>
     b3c:	bd70      	pop	{r4, r5, r6, pc}
     b3e:	f000 feaf 	bl	18a0 <GPIO_SetBit>
     b42:	e7e4      	b.n	b0e <BK4819_WriteU8+0x1e>
     b44:	40061000 	.word	0x40061000

00000b48 <BK4819_ReadRegister>:
     b48:	b5f7      	push	{r0, r1, r2, r4, r5, r6, r7, lr}
     b4a:	4c2c      	ldr	r4, [pc, #176]	; (bfc <BK4819_ReadRegister+0xb4>)
     b4c:	0005      	movs	r5, r0
     b4e:	2100      	movs	r1, #0
     b50:	0020      	movs	r0, r4
     b52:	f000 fea5 	bl	18a0 <GPIO_SetBit>
     b56:	2101      	movs	r1, #1
     b58:	0020      	movs	r0, r4
     b5a:	f000 fe90 	bl	187e <GPIO_ClearBit>
     b5e:	2001      	movs	r0, #1
     b60:	f001 fab2 	bl	20c8 <SYSTICK_DelayUs>
     b64:	2100      	movs	r1, #0
     b66:	0020      	movs	r0, r4
     b68:	f000 fe89 	bl	187e <GPIO_ClearBit>
     b6c:	2080      	movs	r0, #128	; 0x80
     b6e:	4328      	orrs	r0, r5
     b70:	f7ff ffbe 	bl	af0 <BK4819_WriteU8>
     b74:	2204      	movs	r2, #4
     b76:	4e22      	ldr	r6, [pc, #136]	; (c00 <BK4819_ReadRegister+0xb8>)
     b78:	2001      	movs	r0, #1
     b7a:	6833      	ldr	r3, [r6, #0]
     b7c:	2500      	movs	r5, #0
     b7e:	4313      	orrs	r3, r2
     b80:	6033      	str	r3, [r6, #0]
     b82:	6863      	ldr	r3, [r4, #4]
     b84:	2701      	movs	r7, #1
     b86:	4393      	bics	r3, r2
     b88:	6063      	str	r3, [r4, #4]
     b8a:	f001 fa9d 	bl	20c8 <SYSTICK_DelayUs>
     b8e:	2310      	movs	r3, #16
     b90:	9301      	str	r3, [sp, #4]
     b92:	2102      	movs	r1, #2
     b94:	4819      	ldr	r0, [pc, #100]	; (bfc <BK4819_ReadRegister+0xb4>)
     b96:	f000 fe78 	bl	188a <GPIO_CheckBit>
     b9a:	006d      	lsls	r5, r5, #1
     b9c:	b2ad      	uxth	r5, r5
     b9e:	0039      	movs	r1, r7
     ba0:	4305      	orrs	r5, r0
     ba2:	4816      	ldr	r0, [pc, #88]	; (bfc <BK4819_ReadRegister+0xb4>)
     ba4:	f000 fe7c 	bl	18a0 <GPIO_SetBit>
     ba8:	0038      	movs	r0, r7
     baa:	f001 fa8d 	bl	20c8 <SYSTICK_DelayUs>
     bae:	0039      	movs	r1, r7
     bb0:	4812      	ldr	r0, [pc, #72]	; (bfc <BK4819_ReadRegister+0xb4>)
     bb2:	f000 fe64 	bl	187e <GPIO_ClearBit>
     bb6:	0038      	movs	r0, r7
     bb8:	f001 fa86 	bl	20c8 <SYSTICK_DelayUs>
     bbc:	9b01      	ldr	r3, [sp, #4]
     bbe:	b2ad      	uxth	r5, r5
     bc0:	3b01      	subs	r3, #1
     bc2:	b2db      	uxtb	r3, r3
     bc4:	9301      	str	r3, [sp, #4]
     bc6:	2b00      	cmp	r3, #0
     bc8:	d1e3      	bne.n	b92 <BK4819_ReadRegister+0x4a>
     bca:	6832      	ldr	r2, [r6, #0]
     bcc:	3304      	adds	r3, #4
     bce:	439a      	bics	r2, r3
     bd0:	6032      	str	r2, [r6, #0]
     bd2:	6862      	ldr	r2, [r4, #4]
     bd4:	9901      	ldr	r1, [sp, #4]
     bd6:	4313      	orrs	r3, r2
     bd8:	6063      	str	r3, [r4, #4]
     bda:	4808      	ldr	r0, [pc, #32]	; (bfc <BK4819_ReadRegister+0xb4>)
     bdc:	f000 fe60 	bl	18a0 <GPIO_SetBit>
     be0:	2001      	movs	r0, #1
     be2:	f001 fa71 	bl	20c8 <SYSTICK_DelayUs>
     be6:	2101      	movs	r1, #1
     be8:	4804      	ldr	r0, [pc, #16]	; (bfc <BK4819_ReadRegister+0xb4>)
     bea:	f000 fe59 	bl	18a0 <GPIO_SetBit>
     bee:	2102      	movs	r1, #2
     bf0:	4802      	ldr	r0, [pc, #8]	; (bfc <BK4819_ReadRegister+0xb4>)
     bf2:	f000 fe55 	bl	18a0 <GPIO_SetBit>
     bf6:	0028      	movs	r0, r5
     bf8:	bdfe      	pop	{r1, r2, r3, r4, r5, r6, r7, pc}
     bfa:	46c0      	nop			; (mov r8, r8)
     bfc:	40061000 	.word	0x40061000
     c00:	400b0108 	.word	0x400b0108

00000c04 <BK4819_WriteU16>:
     c04:	b570      	push	{r4, r5, r6, lr}
     c06:	2101      	movs	r1, #1
     c08:	0004      	movs	r4, r0
     c0a:	4813      	ldr	r0, [pc, #76]	; (c58 <BK4819_WriteU16+0x54>)
     c0c:	f000 fe37 	bl	187e <GPIO_ClearBit>
     c10:	2510      	movs	r5, #16
     c12:	2601      	movs	r6, #1
     c14:	b223      	sxth	r3, r4
     c16:	2102      	movs	r1, #2
     c18:	480f      	ldr	r0, [pc, #60]	; (c58 <BK4819_WriteU16+0x54>)
     c1a:	2b00      	cmp	r3, #0
     c1c:	db19      	blt.n	c52 <BK4819_WriteU16+0x4e>
     c1e:	f000 fe2e 	bl	187e <GPIO_ClearBit>
     c22:	0030      	movs	r0, r6
     c24:	f001 fa50 	bl	20c8 <SYSTICK_DelayUs>
     c28:	0031      	movs	r1, r6
     c2a:	480b      	ldr	r0, [pc, #44]	; (c58 <BK4819_WriteU16+0x54>)
     c2c:	f000 fe38 	bl	18a0 <GPIO_SetBit>
     c30:	0030      	movs	r0, r6
     c32:	f001 fa49 	bl	20c8 <SYSTICK_DelayUs>
     c36:	3d01      	subs	r5, #1
     c38:	0031      	movs	r1, r6
     c3a:	4807      	ldr	r0, [pc, #28]	; (c58 <BK4819_WriteU16+0x54>)
     c3c:	f000 fe1f 	bl	187e <GPIO_ClearBit>
     c40:	0064      	lsls	r4, r4, #1
     c42:	0030      	movs	r0, r6
     c44:	b2ed      	uxtb	r5, r5
     c46:	f001 fa3f 	bl	20c8 <SYSTICK_DelayUs>
     c4a:	b2a4      	uxth	r4, r4
     c4c:	2d00      	cmp	r5, #0
     c4e:	d1e1      	bne.n	c14 <BK4819_WriteU16+0x10>
     c50:	bd70      	pop	{r4, r5, r6, pc}
     c52:	f000 fe25 	bl	18a0 <GPIO_SetBit>
     c56:	e7e4      	b.n	c22 <BK4819_WriteU16+0x1e>
     c58:	40061000 	.word	0x40061000

00000c5c <BK4819_WriteRegister>:
     c5c:	b570      	push	{r4, r5, r6, lr}
     c5e:	0006      	movs	r6, r0
     c60:	000d      	movs	r5, r1
     c62:	4c16      	ldr	r4, [pc, #88]	; (cbc <BK4819_WriteRegister+0x60>)
     c64:	2100      	movs	r1, #0
     c66:	0020      	movs	r0, r4
     c68:	f000 fe1a 	bl	18a0 <GPIO_SetBit>
     c6c:	2101      	movs	r1, #1
     c6e:	0020      	movs	r0, r4
     c70:	f000 fe05 	bl	187e <GPIO_ClearBit>
     c74:	2001      	movs	r0, #1
     c76:	f001 fa27 	bl	20c8 <SYSTICK_DelayUs>
     c7a:	2100      	movs	r1, #0
     c7c:	0020      	movs	r0, r4
     c7e:	f000 fdfe 	bl	187e <GPIO_ClearBit>
     c82:	0030      	movs	r0, r6
     c84:	f7ff ff34 	bl	af0 <BK4819_WriteU8>
     c88:	2001      	movs	r0, #1
     c8a:	f001 fa1d 	bl	20c8 <SYSTICK_DelayUs>
     c8e:	0028      	movs	r0, r5
     c90:	f7ff ffb8 	bl	c04 <BK4819_WriteU16>
     c94:	2001      	movs	r0, #1
     c96:	f001 fa17 	bl	20c8 <SYSTICK_DelayUs>
     c9a:	2100      	movs	r1, #0
     c9c:	0020      	movs	r0, r4
     c9e:	f000 fdff 	bl	18a0 <GPIO_SetBit>
     ca2:	2001      	movs	r0, #1
     ca4:	f001 fa10 	bl	20c8 <SYSTICK_DelayUs>
     ca8:	0020      	movs	r0, r4
     caa:	2101      	movs	r1, #1
     cac:	f000 fdf8 	bl	18a0 <GPIO_SetBit>
     cb0:	2102      	movs	r1, #2
     cb2:	0020      	movs	r0, r4
     cb4:	f000 fdf4 	bl	18a0 <GPIO_SetBit>
     cb8:	bd70      	pop	{r4, r5, r6, pc}
     cba:	46c0      	nop			; (mov r8, r8)
     cbc:	40061000 	.word	0x40061000

00000cc0 <BK4819_SetAGC>:
     cc0:	b510      	push	{r4, lr}
     cc2:	2800      	cmp	r0, #0
     cc4:	d11c      	bne.n	d00 <BK4819_SetAGC+0x40>
     cc6:	4928      	ldr	r1, [pc, #160]	; (d68 <BK4819_SetAGC+0xa8>)
     cc8:	3013      	adds	r0, #19
     cca:	f7ff ffc7 	bl	c5c <BK4819_WriteRegister>
     cce:	2012      	movs	r0, #18
     cd0:	4926      	ldr	r1, [pc, #152]	; (d6c <BK4819_SetAGC+0xac>)
     cd2:	f7ff ffc3 	bl	c5c <BK4819_WriteRegister>
     cd6:	2011      	movs	r0, #17
     cd8:	4925      	ldr	r1, [pc, #148]	; (d70 <BK4819_SetAGC+0xb0>)
     cda:	f7ff ffbf 	bl	c5c <BK4819_WriteRegister>
     cde:	217a      	movs	r1, #122	; 0x7a
     ce0:	2010      	movs	r0, #16
     ce2:	f7ff ffbb 	bl	c5c <BK4819_WriteRegister>
     ce6:	2119      	movs	r1, #25
     ce8:	2014      	movs	r0, #20
     cea:	f7ff ffb7 	bl	c5c <BK4819_WriteRegister>
     cee:	2049      	movs	r0, #73	; 0x49
     cf0:	4920      	ldr	r1, [pc, #128]	; (d74 <BK4819_SetAGC+0xb4>)
     cf2:	f7ff ffb3 	bl	c5c <BK4819_WriteRegister>
     cf6:	207b      	movs	r0, #123	; 0x7b
     cf8:	491f      	ldr	r1, [pc, #124]	; (d78 <BK4819_SetAGC+0xb8>)
     cfa:	f7ff ffaf 	bl	c5c <BK4819_WriteRegister>
     cfe:	bd10      	pop	{r4, pc}
     d00:	2801      	cmp	r0, #1
     d02:	d1fc      	bne.n	cfe <BK4819_SetAGC+0x3e>
     d04:	4918      	ldr	r1, [pc, #96]	; (d68 <BK4819_SetAGC+0xa8>)
     d06:	3012      	adds	r0, #18
     d08:	f7ff ffa8 	bl	c5c <BK4819_WriteRegister>
     d0c:	21df      	movs	r1, #223	; 0xdf
     d0e:	2012      	movs	r0, #18
     d10:	0089      	lsls	r1, r1, #2
     d12:	f7ff ffa3 	bl	c5c <BK4819_WriteRegister>
     d16:	2011      	movs	r0, #17
     d18:	4915      	ldr	r1, [pc, #84]	; (d70 <BK4819_SetAGC+0xb0>)
     d1a:	f7ff ff9f 	bl	c5c <BK4819_WriteRegister>
     d1e:	217a      	movs	r1, #122	; 0x7a
     d20:	2010      	movs	r0, #16
     d22:	f7ff ff9b 	bl	c5c <BK4819_WriteRegister>
     d26:	2118      	movs	r1, #24
     d28:	2014      	movs	r0, #20
     d2a:	f7ff ff97 	bl	c5c <BK4819_WriteRegister>
     d2e:	2049      	movs	r0, #73	; 0x49
     d30:	4910      	ldr	r1, [pc, #64]	; (d74 <BK4819_SetAGC+0xb4>)
     d32:	f7ff ff93 	bl	c5c <BK4819_WriteRegister>
     d36:	207b      	movs	r0, #123	; 0x7b
     d38:	4910      	ldr	r1, [pc, #64]	; (d7c <BK4819_SetAGC+0xbc>)
     d3a:	f7ff ff8f 	bl	c5c <BK4819_WriteRegister>
     d3e:	207c      	movs	r0, #124	; 0x7c
     d40:	490f      	ldr	r1, [pc, #60]	; (d80 <BK4819_SetAGC+0xc0>)
     d42:	f7ff ff8b 	bl	c5c <BK4819_WriteRegister>
     d46:	2020      	movs	r0, #32
     d48:	490e      	ldr	r1, [pc, #56]	; (d84 <BK4819_SetAGC+0xc4>)
     d4a:	f7ff ff87 	bl	c5c <BK4819_WriteRegister>
     d4e:	2400      	movs	r4, #0
     d50:	490d      	ldr	r1, [pc, #52]	; (d88 <BK4819_SetAGC+0xc8>)
     d52:	0363      	lsls	r3, r4, #13
     d54:	4319      	orrs	r1, r3
     d56:	2006      	movs	r0, #6
     d58:	b289      	uxth	r1, r1
     d5a:	3401      	adds	r4, #1
     d5c:	f7ff ff7e 	bl	c5c <BK4819_WriteRegister>
     d60:	2c08      	cmp	r4, #8
     d62:	d1f5      	bne.n	d50 <BK4819_SetAGC+0x90>
     d64:	e7cb      	b.n	cfe <BK4819_SetAGC+0x3e>
     d66:	46c0      	nop			; (mov r8, r8)
     d68:	000003be 	.word	0x000003be
     d6c:	0000037b 	.word	0x0000037b
     d70:	0000027b 	.word	0x0000027b
     d74:	00002a38 	.word	0x00002a38
     d78:	00008420 	.word	0x00008420
     d7c:	0000318c 	.word	0x0000318c
     d80:	0000595e 	.word	0x0000595e
     d84:	00008def 	.word	0x00008def
     d88:	00002536 	.word	0x00002536

00000d8c <BK4819_Init>:
     d8c:	b510      	push	{r4, lr}
     d8e:	2100      	movs	r1, #0
     d90:	4825      	ldr	r0, [pc, #148]	; (e28 <BK4819_Init+0x9c>)
     d92:	f000 fd85 	bl	18a0 <GPIO_SetBit>
     d96:	2101      	movs	r1, #1
     d98:	4823      	ldr	r0, [pc, #140]	; (e28 <BK4819_Init+0x9c>)
     d9a:	f000 fd81 	bl	18a0 <GPIO_SetBit>
     d9e:	2102      	movs	r1, #2
     da0:	4821      	ldr	r0, [pc, #132]	; (e28 <BK4819_Init+0x9c>)
     da2:	f000 fd7d 	bl	18a0 <GPIO_SetBit>
     da6:	2180      	movs	r1, #128	; 0x80
     da8:	2000      	movs	r0, #0
     daa:	0209      	lsls	r1, r1, #8
     dac:	f7ff ff56 	bl	c5c <BK4819_WriteRegister>
     db0:	2100      	movs	r1, #0
     db2:	0008      	movs	r0, r1
     db4:	f7ff ff52 	bl	c5c <BK4819_WriteRegister>
     db8:	2037      	movs	r0, #55	; 0x37
     dba:	491c      	ldr	r1, [pc, #112]	; (e2c <BK4819_Init+0xa0>)
     dbc:	f7ff ff4e 	bl	c5c <BK4819_WriteRegister>
     dc0:	2122      	movs	r1, #34	; 0x22
     dc2:	2036      	movs	r0, #54	; 0x36
     dc4:	f7ff ff4a 	bl	c5c <BK4819_WriteRegister>
     dc8:	2000      	movs	r0, #0
     dca:	f7ff ff79 	bl	cc0 <BK4819_SetAGC>
     dce:	2019      	movs	r0, #25
     dd0:	4917      	ldr	r1, [pc, #92]	; (e30 <BK4819_Init+0xa4>)
     dd2:	f7ff ff43 	bl	c5c <BK4819_WriteRegister>
     dd6:	207d      	movs	r0, #125	; 0x7d
     dd8:	4916      	ldr	r1, [pc, #88]	; (e34 <BK4819_Init+0xa8>)
     dda:	f7ff ff3f 	bl	c5c <BK4819_WriteRegister>
     dde:	2048      	movs	r0, #72	; 0x48
     de0:	4915      	ldr	r1, [pc, #84]	; (e38 <BK4819_Init+0xac>)
     de2:	f7ff ff3b 	bl	c5c <BK4819_WriteRegister>
     de6:	2400      	movs	r4, #0
     de8:	4a14      	ldr	r2, [pc, #80]	; (e3c <BK4819_Init+0xb0>)
     dea:	0323      	lsls	r3, r4, #12
     dec:	5ca1      	ldrb	r1, [r4, r2]
     dee:	2009      	movs	r0, #9
     df0:	4319      	orrs	r1, r3
     df2:	b289      	uxth	r1, r1
     df4:	3401      	adds	r4, #1
     df6:	f7ff ff31 	bl	c5c <BK4819_WriteRegister>
     dfa:	2c10      	cmp	r4, #16
     dfc:	d1f4      	bne.n	de8 <BK4819_Init+0x5c>
     dfe:	201f      	movs	r0, #31
     e00:	490f      	ldr	r1, [pc, #60]	; (e40 <BK4819_Init+0xb4>)
     e02:	f7ff ff2b 	bl	c5c <BK4819_WriteRegister>
     e06:	203e      	movs	r0, #62	; 0x3e
     e08:	490e      	ldr	r1, [pc, #56]	; (e44 <BK4819_Init+0xb8>)
     e0a:	f7ff ff27 	bl	c5c <BK4819_WriteRegister>
     e0e:	2190      	movs	r1, #144	; 0x90
     e10:	4b0d      	ldr	r3, [pc, #52]	; (e48 <BK4819_Init+0xbc>)
     e12:	4a0e      	ldr	r2, [pc, #56]	; (e4c <BK4819_Init+0xc0>)
     e14:	2033      	movs	r0, #51	; 0x33
     e16:	0209      	lsls	r1, r1, #8
     e18:	801a      	strh	r2, [r3, #0]
     e1a:	f7ff ff1f 	bl	c5c <BK4819_WriteRegister>
     e1e:	2100      	movs	r1, #0
     e20:	203f      	movs	r0, #63	; 0x3f
     e22:	f7ff ff1b 	bl	c5c <BK4819_WriteRegister>
     e26:	bd10      	pop	{r4, pc}
     e28:	40061000 	.word	0x40061000
     e2c:	00001d0f 	.word	0x00001d0f
     e30:	00001041 	.word	0x00001041
     e34:	0000e94f 	.word	0x0000e94f
     e38:	0000b3a8 	.word	0x0000b3a8
     e3c:	0000be44 	.word	0x0000be44
     e40:	00005454 	.word	0x00005454
     e44:	0000a037 	.word	0x0000a037
     e48:	2000063e 	.word	0x2000063e
     e4c:	ffff9000 	.word	0xffff9000

00000e50 <BK4819_ToggleGpioOut>:
     e50:	2340      	movs	r3, #64	; 0x40
     e52:	40c3      	lsrs	r3, r0
     e54:	4807      	ldr	r0, [pc, #28]	; (e74 <BK4819_ToggleGpioOut+0x24>)
     e56:	b510      	push	{r4, lr}
     e58:	8804      	ldrh	r4, [r0, #0]
     e5a:	b29b      	uxth	r3, r3
     e5c:	0022      	movs	r2, r4
     e5e:	439a      	bics	r2, r3
     e60:	2900      	cmp	r1, #0
     e62:	d001      	beq.n	e68 <BK4819_ToggleGpioOut+0x18>
     e64:	4323      	orrs	r3, r4
     e66:	001a      	movs	r2, r3
     e68:	8002      	strh	r2, [r0, #0]
     e6a:	0011      	movs	r1, r2
     e6c:	2033      	movs	r0, #51	; 0x33
     e6e:	f7ff fef5 	bl	c5c <BK4819_WriteRegister>
     e72:	bd10      	pop	{r4, pc}
     e74:	2000063e 	.word	0x2000063e

00000e78 <BK4819_SetCDCSSCodeWord>:
     e78:	b510      	push	{r4, lr}
     e7a:	0004      	movs	r4, r0
     e7c:	2051      	movs	r0, #81	; 0x51
     e7e:	490a      	ldr	r1, [pc, #40]	; (ea8 <BK4819_SetCDCSSCodeWord+0x30>)
     e80:	f7ff feec 	bl	c5c <BK4819_WriteRegister>
     e84:	2007      	movs	r0, #7
     e86:	4909      	ldr	r1, [pc, #36]	; (eac <BK4819_SetCDCSSCodeWord+0x34>)
     e88:	f7ff fee8 	bl	c5c <BK4819_WriteRegister>
     e8c:	0521      	lsls	r1, r4, #20
     e8e:	2008      	movs	r0, #8
     e90:	0d09      	lsrs	r1, r1, #20
     e92:	f7ff fee3 	bl	c5c <BK4819_WriteRegister>
     e96:	0221      	lsls	r1, r4, #8
     e98:	2480      	movs	r4, #128	; 0x80
     e9a:	0d09      	lsrs	r1, r1, #20
     e9c:	0224      	lsls	r4, r4, #8
     e9e:	2008      	movs	r0, #8
     ea0:	4321      	orrs	r1, r4
     ea2:	f7ff fedb 	bl	c5c <BK4819_WriteRegister>
     ea6:	bd10      	pop	{r4, pc}
     ea8:	00008033 	.word	0x00008033
     eac:	00000ad7 	.word	0x00000ad7

00000eb0 <BK4819_SetCTCSSFrequency>:
     eb0:	4b0b      	ldr	r3, [pc, #44]	; (ee0 <BK4819_SetCTCSSFrequency+0x30>)
     eb2:	b510      	push	{r4, lr}
     eb4:	18c1      	adds	r1, r0, r3
     eb6:	424b      	negs	r3, r1
     eb8:	4159      	adcs	r1, r3
     eba:	4b0a      	ldr	r3, [pc, #40]	; (ee4 <BK4819_SetCTCSSFrequency+0x34>)
     ebc:	0289      	lsls	r1, r1, #10
     ebe:	18c9      	adds	r1, r1, r3
     ec0:	0004      	movs	r4, r0
     ec2:	2051      	movs	r0, #81	; 0x51
     ec4:	f7ff feca 	bl	c5c <BK4819_WriteRegister>
     ec8:	21fa      	movs	r1, #250	; 0xfa
     eca:	4807      	ldr	r0, [pc, #28]	; (ee8 <BK4819_SetCTCSSFrequency+0x38>)
     ecc:	0089      	lsls	r1, r1, #2
     ece:	4360      	muls	r0, r4
     ed0:	f00a fd10 	bl	b8f4 <__udivsi3>
     ed4:	b281      	uxth	r1, r0
     ed6:	2007      	movs	r0, #7
     ed8:	f7ff fec0 	bl	c5c <BK4819_WriteRegister>
     edc:	bd10      	pop	{r4, pc}
     ede:	46c0      	nop			; (mov r8, r8)
     ee0:	fffff5bf 	.word	0xfffff5bf
     ee4:	0000904a 	.word	0x0000904a
     ee8:	00000811 	.word	0x00000811

00000eec <BK4819_Set55HzTailDetection>:
     eec:	b510      	push	{r4, lr}
     eee:	2007      	movs	r0, #7
     ef0:	4901      	ldr	r1, [pc, #4]	; (ef8 <BK4819_Set55HzTailDetection+0xc>)
     ef2:	f7ff feb3 	bl	c5c <BK4819_WriteRegister>
     ef6:	bd10      	pop	{r4, pc}
     ef8:	000021ce 	.word	0x000021ce

00000efc <BK4819_EnableVox>:
     efc:	b570      	push	{r4, r5, r6, lr}
     efe:	0004      	movs	r4, r0
     f00:	2031      	movs	r0, #49	; 0x31
     f02:	000d      	movs	r5, r1
     f04:	f7ff fe20 	bl	b48 <BK4819_ReadRegister>
     f08:	0561      	lsls	r1, r4, #21
     f0a:	24a0      	movs	r4, #160	; 0xa0
     f0c:	0d49      	lsrs	r1, r1, #21
     f0e:	0224      	lsls	r4, r4, #8
     f10:	0006      	movs	r6, r0
     f12:	4321      	orrs	r1, r4
     f14:	2046      	movs	r0, #70	; 0x46
     f16:	f7ff fea1 	bl	c5c <BK4819_WriteRegister>
     f1a:	0569      	lsls	r1, r5, #21
     f1c:	25c0      	movs	r5, #192	; 0xc0
     f1e:	0d49      	lsrs	r1, r1, #21
     f20:	016d      	lsls	r5, r5, #5
     f22:	4329      	orrs	r1, r5
     f24:	2079      	movs	r0, #121	; 0x79
     f26:	f7ff fe99 	bl	c5c <BK4819_WriteRegister>
     f2a:	207a      	movs	r0, #122	; 0x7a
     f2c:	4904      	ldr	r1, [pc, #16]	; (f40 <BK4819_EnableVox+0x44>)
     f2e:	f7ff fe95 	bl	c5c <BK4819_WriteRegister>
     f32:	2104      	movs	r1, #4
     f34:	4331      	orrs	r1, r6
     f36:	2031      	movs	r0, #49	; 0x31
     f38:	b289      	uxth	r1, r1
     f3a:	f7ff fe8f 	bl	c5c <BK4819_WriteRegister>
     f3e:	bd70      	pop	{r4, r5, r6, pc}
     f40:	0000289a 	.word	0x0000289a

00000f44 <BK4819_SetFilterBandwidth>:
     f44:	b510      	push	{r4, lr}
     f46:	0043      	lsls	r3, r0, #1
     f48:	4803      	ldr	r0, [pc, #12]	; (f58 <BK4819_SetFilterBandwidth+0x14>)
     f4a:	18c0      	adds	r0, r0, r3
     f4c:	8a01      	ldrh	r1, [r0, #16]
     f4e:	2043      	movs	r0, #67	; 0x43
     f50:	f7ff fe84 	bl	c5c <BK4819_WriteRegister>
     f54:	bd10      	pop	{r4, pc}
     f56:	46c0      	nop			; (mov r8, r8)
     f58:	0000be44 	.word	0x0000be44

00000f5c <BK4819_SetupPowerAmplifier>:
     f5c:	b510      	push	{r4, lr}
     f5e:	1c03      	adds	r3, r0, #0
     f60:	28ff      	cmp	r0, #255	; 0xff
     f62:	d900      	bls.n	f66 <BK4819_SetupPowerAmplifier+0xa>
     f64:	23ff      	movs	r3, #255	; 0xff
     f66:	4807      	ldr	r0, [pc, #28]	; (f84 <BK4819_SetupPowerAmplifier+0x28>)
     f68:	2208      	movs	r2, #8
     f6a:	b29b      	uxth	r3, r3
     f6c:	4281      	cmp	r1, r0
     f6e:	d900      	bls.n	f72 <BK4819_SetupPowerAmplifier+0x16>
     f70:	321a      	adds	r2, #26
     f72:	2180      	movs	r1, #128	; 0x80
     f74:	021b      	lsls	r3, r3, #8
     f76:	4313      	orrs	r3, r2
     f78:	4319      	orrs	r1, r3
     f7a:	2036      	movs	r0, #54	; 0x36
     f7c:	b289      	uxth	r1, r1
     f7e:	f7ff fe6d 	bl	c5c <BK4819_WriteRegister>
     f82:	bd10      	pop	{r4, pc}
     f84:	01ab3eff 	.word	0x01ab3eff

00000f88 <BK4819_SetFrequency>:
     f88:	b510      	push	{r4, lr}
     f8a:	0004      	movs	r4, r0
     f8c:	b281      	uxth	r1, r0
     f8e:	2038      	movs	r0, #56	; 0x38
     f90:	f7ff fe64 	bl	c5c <BK4819_WriteRegister>
     f94:	2039      	movs	r0, #57	; 0x39
     f96:	0c21      	lsrs	r1, r4, #16
     f98:	f7ff fe60 	bl	c5c <BK4819_WriteRegister>
     f9c:	bd10      	pop	{r4, pc}

00000f9e <BK4819_GetFrequency>:
     f9e:	b510      	push	{r4, lr}
     fa0:	2039      	movs	r0, #57	; 0x39
     fa2:	f7ff fdd1 	bl	b48 <BK4819_ReadRegister>
     fa6:	0004      	movs	r4, r0
     fa8:	2038      	movs	r0, #56	; 0x38
     faa:	f7ff fdcd 	bl	b48 <BK4819_ReadRegister>
     fae:	0424      	lsls	r4, r4, #16
     fb0:	4320      	orrs	r0, r4
     fb2:	bd10      	pop	{r4, pc}

00000fb4 <BK4819_SetAF>:
     fb4:	b510      	push	{r4, lr}
     fb6:	4903      	ldr	r1, [pc, #12]	; (fc4 <BK4819_SetAF+0x10>)
     fb8:	0200      	lsls	r0, r0, #8
     fba:	4301      	orrs	r1, r0
     fbc:	2047      	movs	r0, #71	; 0x47
     fbe:	f7ff fe4d 	bl	c5c <BK4819_WriteRegister>
     fc2:	bd10      	pop	{r4, pc}
     fc4:	00006040 	.word	0x00006040

00000fc8 <BK4819_GetRegValue>:
     fc8:	b51f      	push	{r0, r1, r2, r3, r4, lr}
     fca:	b2c8      	uxtb	r0, r1
     fcc:	9102      	str	r1, [sp, #8]
     fce:	f7ff fdbb 	bl	b48 <BK4819_ReadRegister>
     fd2:	ac01      	add	r4, sp, #4
     fd4:	7963      	ldrb	r3, [r4, #5]
     fd6:	4118      	asrs	r0, r3
     fd8:	0003      	movs	r3, r0
     fda:	88e0      	ldrh	r0, [r4, #6]
     fdc:	4018      	ands	r0, r3
     fde:	b004      	add	sp, #16
     fe0:	bd10      	pop	{r4, pc}

00000fe2 <BK4819_SetRegValue>:
     fe2:	b5f0      	push	{r4, r5, r6, r7, lr}
     fe4:	b2cc      	uxtb	r4, r1
     fe6:	b085      	sub	sp, #20
     fe8:	0020      	movs	r0, r4
     fea:	001e      	movs	r6, r3
     fec:	0a0d      	lsrs	r5, r1, #8
     fee:	9102      	str	r1, [sp, #8]
     ff0:	f7ff fdaa 	bl	b48 <BK4819_ReadRegister>
     ff4:	af01      	add	r7, sp, #4
     ff6:	88fb      	ldrh	r3, [r7, #6]
     ff8:	b2ed      	uxtb	r5, r5
     ffa:	40ab      	lsls	r3, r5
     ffc:	0001      	movs	r1, r0
     ffe:	40ae      	lsls	r6, r5
    1000:	4399      	bics	r1, r3
    1002:	4331      	orrs	r1, r6
    1004:	0020      	movs	r0, r4
    1006:	b289      	uxth	r1, r1
    1008:	f7ff fe28 	bl	c5c <BK4819_WriteRegister>
    100c:	b005      	add	sp, #20
    100e:	bdf0      	pop	{r4, r5, r6, r7, pc}

00001010 <BK4819_SetModulation>:
    1010:	b537      	push	{r0, r1, r2, r4, r5, lr}
    1012:	0004      	movs	r4, r0
    1014:	2205      	movs	r2, #5
    1016:	4911      	ldr	r1, [pc, #68]	; (105c <BK4819_SetModulation+0x4c>)
    1018:	4668      	mov	r0, sp
    101a:	f00a fde1 	bl	bbe0 <memcpy>
    101e:	466b      	mov	r3, sp
    1020:	5d18      	ldrb	r0, [r3, r4]
    1022:	f7ff ffc7 	bl	fb4 <BK4819_SetAF>
    1026:	4d0e      	ldr	r5, [pc, #56]	; (1060 <BK4819_SetModulation+0x50>)
    1028:	230f      	movs	r3, #15
    102a:	6a2a      	ldr	r2, [r5, #32]
    102c:	69a8      	ldr	r0, [r5, #24]
    102e:	69e9      	ldr	r1, [r5, #28]
    1030:	f7ff ffd7 	bl	fe2 <BK4819_SetRegValue>
    1034:	1ea1      	subs	r1, r4, #2
    1036:	424b      	negs	r3, r1
    1038:	4159      	adcs	r1, r3
    103a:	4b0a      	ldr	r3, [pc, #40]	; (1064 <BK4819_SetModulation+0x54>)
    103c:	4249      	negs	r1, r1
    103e:	4019      	ands	r1, r3
    1040:	4b09      	ldr	r3, [pc, #36]	; (1068 <BK4819_SetModulation+0x58>)
    1042:	203d      	movs	r0, #61	; 0x3d
    1044:	18c9      	adds	r1, r1, r3
    1046:	1e63      	subs	r3, r4, #1
    1048:	419c      	sbcs	r4, r3
    104a:	3524      	adds	r5, #36	; 0x24
    104c:	f7ff fe06 	bl	c5c <BK4819_WriteRegister>
    1050:	cd07      	ldmia	r5!, {r0, r1, r2}
    1052:	b2a3      	uxth	r3, r4
    1054:	f7ff ffc5 	bl	fe2 <BK4819_SetRegValue>
    1058:	bd37      	pop	{r0, r1, r2, r4, r5, pc}
    105a:	46c0      	nop			; (mov r8, r8)
    105c:	0000db96 	.word	0x0000db96
    1060:	0000be44 	.word	0x0000be44
    1064:	ffffd555 	.word	0xffffd555
    1068:	00002aab 	.word	0x00002aab

0000106c <BK4819_RX_TurnOn>:
    106c:	b510      	push	{r4, lr}
    106e:	2037      	movs	r0, #55	; 0x37
    1070:	4905      	ldr	r1, [pc, #20]	; (1088 <BK4819_RX_TurnOn+0x1c>)
    1072:	f7ff fdf3 	bl	c5c <BK4819_WriteRegister>
    1076:	2100      	movs	r1, #0
    1078:	2030      	movs	r0, #48	; 0x30
    107a:	f7ff fdef 	bl	c5c <BK4819_WriteRegister>
    107e:	2030      	movs	r0, #48	; 0x30
    1080:	4902      	ldr	r1, [pc, #8]	; (108c <BK4819_RX_TurnOn+0x20>)
    1082:	f7ff fdeb 	bl	c5c <BK4819_WriteRegister>
    1086:	bd10      	pop	{r4, pc}
    1088:	00001f0f 	.word	0x00001f0f
    108c:	0000bff1 	.word	0x0000bff1

00001090 <BK4819_SetupSquelch>:
    1090:	b5f7      	push	{r0, r1, r2, r4, r5, r6, r7, lr}
    1092:	001c      	movs	r4, r3
    1094:	ab08      	add	r3, sp, #32
    1096:	781e      	ldrb	r6, [r3, #0]
    1098:	9000      	str	r0, [sp, #0]
    109a:	ab09      	add	r3, sp, #36	; 0x24
    109c:	9101      	str	r1, [sp, #4]
    109e:	2070      	movs	r0, #112	; 0x70
    10a0:	2100      	movs	r1, #0
    10a2:	0015      	movs	r5, r2
    10a4:	781f      	ldrb	r7, [r3, #0]
    10a6:	f7ff fdd9 	bl	c5c <BK4819_WriteRegister>
    10aa:	21a0      	movs	r1, #160	; 0xa0
    10ac:	0209      	lsls	r1, r1, #8
    10ae:	4331      	orrs	r1, r6
    10b0:	204d      	movs	r0, #77	; 0x4d
    10b2:	f7ff fdd3 	bl	c5c <BK4819_WriteRegister>
    10b6:	21de      	movs	r1, #222	; 0xde
    10b8:	01c9      	lsls	r1, r1, #7
    10ba:	4339      	orrs	r1, r7
    10bc:	204e      	movs	r0, #78	; 0x4e
    10be:	f7ff fdcd 	bl	c5c <BK4819_WriteRegister>
    10c2:	0221      	lsls	r1, r4, #8
    10c4:	4329      	orrs	r1, r5
    10c6:	204f      	movs	r0, #79	; 0x4f
    10c8:	f7ff fdc8 	bl	c5c <BK4819_WriteRegister>
    10cc:	9b00      	ldr	r3, [sp, #0]
    10ce:	2078      	movs	r0, #120	; 0x78
    10d0:	0219      	lsls	r1, r3, #8
    10d2:	9b01      	ldr	r3, [sp, #4]
    10d4:	4319      	orrs	r1, r3
    10d6:	f7ff fdc1 	bl	c5c <BK4819_WriteRegister>
    10da:	2000      	movs	r0, #0
    10dc:	f7ff ff6a 	bl	fb4 <BK4819_SetAF>
    10e0:	f7ff ffc4 	bl	106c <BK4819_RX_TurnOn>
    10e4:	bdf7      	pop	{r0, r1, r2, r4, r5, r6, r7, pc}

000010e6 <BK4819_SelectFilter>:
    10e6:	4b0b      	ldr	r3, [pc, #44]	; (1114 <BK4819_SelectFilter+0x2e>)
    10e8:	b510      	push	{r4, lr}
    10ea:	4298      	cmp	r0, r3
    10ec:	d808      	bhi.n	1100 <BK4819_SelectFilter+0x1a>
    10ee:	2101      	movs	r1, #1
    10f0:	2004      	movs	r0, #4
    10f2:	f7ff fead 	bl	e50 <BK4819_ToggleGpioOut>
    10f6:	2100      	movs	r1, #0
    10f8:	2003      	movs	r0, #3
    10fa:	f7ff fea9 	bl	e50 <BK4819_ToggleGpioOut>
    10fe:	bd10      	pop	{r4, pc}
    1100:	2100      	movs	r1, #0
    1102:	1c43      	adds	r3, r0, #1
    1104:	d101      	bne.n	110a <BK4819_SelectFilter+0x24>
    1106:	3005      	adds	r0, #5
    1108:	e7f3      	b.n	10f2 <BK4819_SelectFilter+0xc>
    110a:	2004      	movs	r0, #4
    110c:	f7ff fea0 	bl	e50 <BK4819_ToggleGpioOut>
    1110:	2101      	movs	r1, #1
    1112:	e7f1      	b.n	10f8 <BK4819_SelectFilter+0x12>
    1114:	01ab3eff 	.word	0x01ab3eff

00001118 <BK4819_DisableScramble>:
    1118:	b510      	push	{r4, lr}
    111a:	2031      	movs	r0, #49	; 0x31
    111c:	f7ff fd14 	bl	b48 <BK4819_ReadRegister>
    1120:	2302      	movs	r3, #2
    1122:	4398      	bics	r0, r3
    1124:	b281      	uxth	r1, r0
    1126:	2031      	movs	r0, #49	; 0x31
    1128:	f7ff fd98 	bl	c5c <BK4819_WriteRegister>
    112c:	bd10      	pop	{r4, pc}

0000112e <BK4819_EnableScramble>:
    112e:	b510      	push	{r4, lr}
    1130:	0004      	movs	r4, r0
    1132:	2031      	movs	r0, #49	; 0x31
    1134:	f7ff fd08 	bl	b48 <BK4819_ReadRegister>
    1138:	2302      	movs	r3, #2
    113a:	4303      	orrs	r3, r0
    113c:	b299      	uxth	r1, r3
    113e:	2031      	movs	r0, #49	; 0x31
    1140:	f7ff fd8c 	bl	c5c <BK4819_WriteRegister>
    1144:	2181      	movs	r1, #129	; 0x81
    1146:	00c9      	lsls	r1, r1, #3
    1148:	4361      	muls	r1, r4
    114a:	4b03      	ldr	r3, [pc, #12]	; (1158 <BK4819_EnableScramble+0x2a>)
    114c:	2071      	movs	r0, #113	; 0x71
    114e:	18c9      	adds	r1, r1, r3
    1150:	b289      	uxth	r1, r1
    1152:	f7ff fd83 	bl	c5c <BK4819_WriteRegister>
    1156:	bd10      	pop	{r4, pc}
    1158:	000068dc 	.word	0x000068dc

0000115c <BK4819_DisableVox>:
    115c:	b510      	push	{r4, lr}
    115e:	2031      	movs	r0, #49	; 0x31
    1160:	f7ff fcf2 	bl	b48 <BK4819_ReadRegister>
    1164:	2304      	movs	r3, #4
    1166:	4398      	bics	r0, r3
    1168:	b281      	uxth	r1, r0
    116a:	2031      	movs	r0, #49	; 0x31
    116c:	f7ff fd76 	bl	c5c <BK4819_WriteRegister>
    1170:	bd10      	pop	{r4, pc}

00001172 <BK4819_DisableDTMF>:
    1172:	b510      	push	{r4, lr}
    1174:	2100      	movs	r1, #0
    1176:	2024      	movs	r0, #36	; 0x24
    1178:	f7ff fd70 	bl	c5c <BK4819_WriteRegister>
    117c:	bd10      	pop	{r4, pc}

0000117e <BK4819_EnableDTMF>:
    117e:	21db      	movs	r1, #219	; 0xdb
    1180:	b510      	push	{r4, lr}
    1182:	2021      	movs	r0, #33	; 0x21
    1184:	00c9      	lsls	r1, r1, #3
    1186:	f7ff fd69 	bl	c5c <BK4819_WriteRegister>
    118a:	2024      	movs	r0, #36	; 0x24
    118c:	4901      	ldr	r1, [pc, #4]	; (1194 <BK4819_EnableDTMF+0x16>)
    118e:	f7ff fd65 	bl	c5c <BK4819_WriteRegister>
    1192:	bd10      	pop	{r4, pc}
    1194:	00008c7e 	.word	0x00008c7e

00001198 <BK4819_EnterTxMute>:
    1198:	b510      	push	{r4, lr}
    119a:	2050      	movs	r0, #80	; 0x50
    119c:	4901      	ldr	r1, [pc, #4]	; (11a4 <BK4819_EnterTxMute+0xc>)
    119e:	f7ff fd5d 	bl	c5c <BK4819_WriteRegister>
    11a2:	bd10      	pop	{r4, pc}
    11a4:	0000bb20 	.word	0x0000bb20

000011a8 <BK4819_ExitTxMute>:
    11a8:	b510      	push	{r4, lr}
    11aa:	2050      	movs	r0, #80	; 0x50
    11ac:	4901      	ldr	r1, [pc, #4]	; (11b4 <BK4819_ExitTxMute+0xc>)
    11ae:	f7ff fd55 	bl	c5c <BK4819_WriteRegister>
    11b2:	bd10      	pop	{r4, pc}
    11b4:	00003b20 	.word	0x00003b20

000011b8 <BK4819_Sleep>:
    11b8:	b510      	push	{r4, lr}
    11ba:	2100      	movs	r1, #0
    11bc:	2030      	movs	r0, #48	; 0x30
    11be:	f7ff fd4d 	bl	c5c <BK4819_WriteRegister>
    11c2:	21e8      	movs	r1, #232	; 0xe8
    11c4:	2037      	movs	r0, #55	; 0x37
    11c6:	0149      	lsls	r1, r1, #5
    11c8:	f7ff fd48 	bl	c5c <BK4819_WriteRegister>
    11cc:	bd10      	pop	{r4, pc}

000011ce <BK4819_TurnsOffTones_TurnsOnRX>:
    11ce:	b510      	push	{r4, lr}
    11d0:	2100      	movs	r1, #0
    11d2:	2070      	movs	r0, #112	; 0x70
    11d4:	f7ff fd42 	bl	c5c <BK4819_WriteRegister>
    11d8:	2000      	movs	r0, #0
    11da:	f7ff feeb 	bl	fb4 <BK4819_SetAF>
    11de:	f7ff ffe3 	bl	11a8 <BK4819_ExitTxMute>
    11e2:	2100      	movs	r1, #0
    11e4:	2030      	movs	r0, #48	; 0x30
    11e6:	f7ff fd39 	bl	c5c <BK4819_WriteRegister>
    11ea:	2030      	movs	r0, #48	; 0x30
    11ec:	4901      	ldr	r1, [pc, #4]	; (11f4 <BK4819_TurnsOffTones_TurnsOnRX+0x26>)
    11ee:	f7ff fd35 	bl	c5c <BK4819_WriteRegister>
    11f2:	bd10      	pop	{r4, pc}
    11f4:	0000bff1 	.word	0x0000bff1

000011f8 <BK4819_Idle>:
    11f8:	b510      	push	{r4, lr}
    11fa:	2100      	movs	r1, #0
    11fc:	2030      	movs	r0, #48	; 0x30
    11fe:	f7ff fd2d 	bl	c5c <BK4819_WriteRegister>
    1202:	bd10      	pop	{r4, pc}

00001204 <BK4819_ExitBypass>:
    1204:	b510      	push	{r4, lr}
    1206:	2000      	movs	r0, #0
    1208:	f7ff fed4 	bl	fb4 <BK4819_SetAF>
    120c:	207e      	movs	r0, #126	; 0x7e
    120e:	4902      	ldr	r1, [pc, #8]	; (1218 <BK4819_ExitBypass+0x14>)
    1210:	f7ff fd24 	bl	c5c <BK4819_WriteRegister>
    1214:	bd10      	pop	{r4, pc}
    1216:	46c0      	nop			; (mov r8, r8)
    1218:	0000302e 	.word	0x0000302e

0000121c <BK4819_TxOn_Beep>:
    121c:	b510      	push	{r4, lr}
    121e:	2037      	movs	r0, #55	; 0x37
    1220:	4907      	ldr	r1, [pc, #28]	; (1240 <BK4819_TxOn_Beep+0x24>)
    1222:	f7ff fd1b 	bl	c5c <BK4819_WriteRegister>
    1226:	2052      	movs	r0, #82	; 0x52
    1228:	4906      	ldr	r1, [pc, #24]	; (1244 <BK4819_TxOn_Beep+0x28>)
    122a:	f7ff fd17 	bl	c5c <BK4819_WriteRegister>
    122e:	2100      	movs	r1, #0
    1230:	2030      	movs	r0, #48	; 0x30
    1232:	f7ff fd13 	bl	c5c <BK4819_WriteRegister>
    1236:	2030      	movs	r0, #48	; 0x30
    1238:	4903      	ldr	r1, [pc, #12]	; (1248 <BK4819_TxOn_Beep+0x2c>)
    123a:	f7ff fd0f 	bl	c5c <BK4819_WriteRegister>
    123e:	bd10      	pop	{r4, pc}
    1240:	00001d0f 	.word	0x00001d0f
    1244:	0000028f 	.word	0x0000028f
    1248:	0000c1fe 	.word	0x0000c1fe

0000124c <BK4819_PrepareTransmit>:
    124c:	b510      	push	{r4, lr}
    124e:	f7ff ffd9 	bl	1204 <BK4819_ExitBypass>
    1252:	f7ff ffa9 	bl	11a8 <BK4819_ExitTxMute>
    1256:	f7ff ffe1 	bl	121c <BK4819_TxOn_Beep>
    125a:	bd10      	pop	{r4, pc}

0000125c <BK4819_ExitSubAu>:
    125c:	b510      	push	{r4, lr}
    125e:	2100      	movs	r1, #0
    1260:	2051      	movs	r0, #81	; 0x51
    1262:	f7ff fcfb 	bl	c5c <BK4819_WriteRegister>
    1266:	bd10      	pop	{r4, pc}

00001268 <BK4819_EnableRX>:
    1268:	4b05      	ldr	r3, [pc, #20]	; (1280 <BK4819_EnableRX+0x18>)
    126a:	b510      	push	{r4, lr}
    126c:	789b      	ldrb	r3, [r3, #2]
    126e:	2b00      	cmp	r3, #0
    1270:	d005      	beq.n	127e <BK4819_EnableRX+0x16>
    1272:	2101      	movs	r1, #1
    1274:	2000      	movs	r0, #0
    1276:	f7ff fdeb 	bl	e50 <BK4819_ToggleGpioOut>
    127a:	f7ff fef7 	bl	106c <BK4819_RX_TurnOn>
    127e:	bd10      	pop	{r4, pc}
    1280:	2000063e 	.word	0x2000063e

00001284 <BK4819_ExitDTMF_TX>:
    1284:	b510      	push	{r4, lr}
    1286:	0004      	movs	r4, r0
    1288:	f7ff ff86 	bl	1198 <BK4819_EnterTxMute>
    128c:	2000      	movs	r0, #0
    128e:	f7ff fe91 	bl	fb4 <BK4819_SetAF>
    1292:	2100      	movs	r1, #0
    1294:	2070      	movs	r0, #112	; 0x70
    1296:	f7ff fce1 	bl	c5c <BK4819_WriteRegister>
    129a:	f7ff ff6a 	bl	1172 <BK4819_DisableDTMF>
    129e:	2030      	movs	r0, #48	; 0x30
    12a0:	4903      	ldr	r1, [pc, #12]	; (12b0 <BK4819_ExitDTMF_TX+0x2c>)
    12a2:	f7ff fcdb 	bl	c5c <BK4819_WriteRegister>
    12a6:	2c00      	cmp	r4, #0
    12a8:	d101      	bne.n	12ae <BK4819_ExitDTMF_TX+0x2a>
    12aa:	f7ff ff7d 	bl	11a8 <BK4819_ExitTxMute>
    12ae:	bd10      	pop	{r4, pc}
    12b0:	0000c1fe 	.word	0x0000c1fe

000012b4 <BK4819_EnableTXLink>:
    12b4:	b510      	push	{r4, lr}
    12b6:	2030      	movs	r0, #48	; 0x30
    12b8:	4901      	ldr	r1, [pc, #4]	; (12c0 <BK4819_EnableTXLink+0xc>)
    12ba:	f7ff fccf 	bl	c5c <BK4819_WriteRegister>
    12be:	bd10      	pop	{r4, pc}
    12c0:	0000c3fa 	.word	0x0000c3fa

000012c4 <BK4819_EnterDTMF_TX>:
    12c4:	b510      	push	{r4, lr}
    12c6:	0004      	movs	r4, r0
    12c8:	f7ff ff59 	bl	117e <BK4819_EnableDTMF>
    12cc:	f7ff ff64 	bl	1198 <BK4819_EnterTxMute>
    12d0:	2003      	movs	r0, #3
    12d2:	2c00      	cmp	r4, #0
    12d4:	d100      	bne.n	12d8 <BK4819_EnterDTMF_TX+0x14>
    12d6:	0020      	movs	r0, r4
    12d8:	f7ff fe6c 	bl	fb4 <BK4819_SetAF>
    12dc:	2070      	movs	r0, #112	; 0x70
    12de:	4903      	ldr	r1, [pc, #12]	; (12ec <BK4819_EnterDTMF_TX+0x28>)
    12e0:	f7ff fcbc 	bl	c5c <BK4819_WriteRegister>
    12e4:	f7ff ffe6 	bl	12b4 <BK4819_EnableTXLink>
    12e8:	bd10      	pop	{r4, pc}
    12ea:	46c0      	nop			; (mov r8, r8)
    12ec:	0000d3d3 	.word	0x0000d3d3

000012f0 <BK4819_PlayDTMF>:
    12f0:	3823      	subs	r0, #35	; 0x23
    12f2:	b510      	push	{r4, lr}
    12f4:	2821      	cmp	r0, #33	; 0x21
    12f6:	d81a      	bhi.n	132e <BK4819_PlayDTMF+0x3e>
    12f8:	f00a fade 	bl	b8b8 <__gnu_thumb1_case_uqi>
    12fc:	19191942 	.word	0x19191942
    1300:	40191919 	.word	0x40191919
    1304:	19191919 	.word	0x19191919
    1308:	201a1119 	.word	0x201a1119
    130c:	2c2a2822 	.word	0x2c2a2822
    1310:	1932302e 	.word	0x1932302e
    1314:	19191919 	.word	0x19191919
    1318:	3a341919 	.word	0x3a341919
    131c:	3e3c      	.short	0x3e3c
    131e:	4919      	ldr	r1, [pc, #100]	; (1384 <BK4819_PlayDTMF+0x94>)
    1320:	2071      	movs	r0, #113	; 0x71
    1322:	f7ff fc9b 	bl	c5c <BK4819_WriteRegister>
    1326:	4918      	ldr	r1, [pc, #96]	; (1388 <BK4819_PlayDTMF+0x98>)
    1328:	2072      	movs	r0, #114	; 0x72
    132a:	f7ff fc97 	bl	c5c <BK4819_WriteRegister>
    132e:	bd10      	pop	{r4, pc}
    1330:	4916      	ldr	r1, [pc, #88]	; (138c <BK4819_PlayDTMF+0x9c>)
    1332:	2071      	movs	r0, #113	; 0x71
    1334:	f7ff fc92 	bl	c5c <BK4819_WriteRegister>
    1338:	4915      	ldr	r1, [pc, #84]	; (1390 <BK4819_PlayDTMF+0xa0>)
    133a:	e7f5      	b.n	1328 <BK4819_PlayDTMF+0x38>
    133c:	4913      	ldr	r1, [pc, #76]	; (138c <BK4819_PlayDTMF+0x9c>)
    133e:	e7ef      	b.n	1320 <BK4819_PlayDTMF+0x30>
    1340:	4912      	ldr	r1, [pc, #72]	; (138c <BK4819_PlayDTMF+0x9c>)
    1342:	2071      	movs	r0, #113	; 0x71
    1344:	f7ff fc8a 	bl	c5c <BK4819_WriteRegister>
    1348:	4912      	ldr	r1, [pc, #72]	; (1394 <BK4819_PlayDTMF+0xa4>)
    134a:	e7ed      	b.n	1328 <BK4819_PlayDTMF+0x38>
    134c:	4912      	ldr	r1, [pc, #72]	; (1398 <BK4819_PlayDTMF+0xa8>)
    134e:	e7f0      	b.n	1332 <BK4819_PlayDTMF+0x42>
    1350:	4911      	ldr	r1, [pc, #68]	; (1398 <BK4819_PlayDTMF+0xa8>)
    1352:	e7e5      	b.n	1320 <BK4819_PlayDTMF+0x30>
    1354:	4910      	ldr	r1, [pc, #64]	; (1398 <BK4819_PlayDTMF+0xa8>)
    1356:	e7f4      	b.n	1342 <BK4819_PlayDTMF+0x52>
    1358:	4910      	ldr	r1, [pc, #64]	; (139c <BK4819_PlayDTMF+0xac>)
    135a:	e7ea      	b.n	1332 <BK4819_PlayDTMF+0x42>
    135c:	490f      	ldr	r1, [pc, #60]	; (139c <BK4819_PlayDTMF+0xac>)
    135e:	e7df      	b.n	1320 <BK4819_PlayDTMF+0x30>
    1360:	490e      	ldr	r1, [pc, #56]	; (139c <BK4819_PlayDTMF+0xac>)
    1362:	e7ee      	b.n	1342 <BK4819_PlayDTMF+0x52>
    1364:	4909      	ldr	r1, [pc, #36]	; (138c <BK4819_PlayDTMF+0x9c>)
    1366:	2071      	movs	r0, #113	; 0x71
    1368:	f7ff fc78 	bl	c5c <BK4819_WriteRegister>
    136c:	490c      	ldr	r1, [pc, #48]	; (13a0 <BK4819_PlayDTMF+0xb0>)
    136e:	e7db      	b.n	1328 <BK4819_PlayDTMF+0x38>
    1370:	4909      	ldr	r1, [pc, #36]	; (1398 <BK4819_PlayDTMF+0xa8>)
    1372:	e7f8      	b.n	1366 <BK4819_PlayDTMF+0x76>
    1374:	4909      	ldr	r1, [pc, #36]	; (139c <BK4819_PlayDTMF+0xac>)
    1376:	e7f6      	b.n	1366 <BK4819_PlayDTMF+0x76>
    1378:	4902      	ldr	r1, [pc, #8]	; (1384 <BK4819_PlayDTMF+0x94>)
    137a:	e7f4      	b.n	1366 <BK4819_PlayDTMF+0x76>
    137c:	4901      	ldr	r1, [pc, #4]	; (1384 <BK4819_PlayDTMF+0x94>)
    137e:	e7d8      	b.n	1332 <BK4819_PlayDTMF+0x42>
    1380:	4900      	ldr	r1, [pc, #0]	; (1384 <BK4819_PlayDTMF+0x94>)
    1382:	e7de      	b.n	1342 <BK4819_PlayDTMF+0x52>
    1384:	000025f3 	.word	0x000025f3
    1388:	000035e1 	.word	0x000035e1
    138c:	00001c1c 	.word	0x00001c1c
    1390:	000030c2 	.word	0x000030c2
    1394:	00003b91 	.word	0x00003b91
    1398:	00001f0e 	.word	0x00001f0e
    139c:	0000225c 	.word	0x0000225c
    13a0:	000041dc 	.word	0x000041dc

000013a4 <BK4819_PlayDTMFString>:
    13a4:	b5f0      	push	{r4, r5, r6, r7, lr}
    13a6:	0005      	movs	r5, r0
    13a8:	2400      	movs	r4, #0
    13aa:	b085      	sub	sp, #20
    13ac:	9302      	str	r3, [sp, #8]
    13ae:	ab0a      	add	r3, sp, #40	; 0x28
    13b0:	881b      	ldrh	r3, [r3, #0]
    13b2:	9100      	str	r1, [sp, #0]
    13b4:	9303      	str	r3, [sp, #12]
    13b6:	ab0b      	add	r3, sp, #44	; 0x2c
    13b8:	881f      	ldrh	r7, [r3, #0]
    13ba:	9201      	str	r2, [sp, #4]
    13bc:	5d28      	ldrb	r0, [r5, r4]
    13be:	192e      	adds	r6, r5, r4
    13c0:	2800      	cmp	r0, #0
    13c2:	d101      	bne.n	13c8 <BK4819_PlayDTMFString+0x24>
    13c4:	b005      	add	sp, #20
    13c6:	bdf0      	pop	{r4, r5, r6, r7, pc}
    13c8:	f7ff ff92 	bl	12f0 <BK4819_PlayDTMF>
    13cc:	f7ff feec 	bl	11a8 <BK4819_ExitTxMute>
    13d0:	9b00      	ldr	r3, [sp, #0]
    13d2:	2b00      	cmp	r3, #0
    13d4:	d002      	beq.n	13dc <BK4819_PlayDTMFString+0x38>
    13d6:	9801      	ldr	r0, [sp, #4]
    13d8:	2c00      	cmp	r4, #0
    13da:	d006      	beq.n	13ea <BK4819_PlayDTMFString+0x46>
    13dc:	7833      	ldrb	r3, [r6, #0]
    13de:	9802      	ldr	r0, [sp, #8]
    13e0:	2b2a      	cmp	r3, #42	; 0x2a
    13e2:	d002      	beq.n	13ea <BK4819_PlayDTMFString+0x46>
    13e4:	2b23      	cmp	r3, #35	; 0x23
    13e6:	d000      	beq.n	13ea <BK4819_PlayDTMFString+0x46>
    13e8:	9803      	ldr	r0, [sp, #12]
    13ea:	f000 fe35 	bl	2058 <SYSTEM_DelayMs>
    13ee:	3401      	adds	r4, #1
    13f0:	f7ff fed2 	bl	1198 <BK4819_EnterTxMute>
    13f4:	0038      	movs	r0, r7
    13f6:	f000 fe2f 	bl	2058 <SYSTEM_DelayMs>
    13fa:	b2e4      	uxtb	r4, r4
    13fc:	e7de      	b.n	13bc <BK4819_PlayDTMFString+0x18>

000013fe <BK4819_GenTail>:
    13fe:	b510      	push	{r4, lr}
    1400:	2804      	cmp	r0, #4
    1402:	d808      	bhi.n	1416 <BK4819_GenTail+0x18>
    1404:	f00a fa58 	bl	b8b8 <__gnu_thumb1_case_uqi>
    1408:	0c0a0803 	.word	0x0c0a0803
    140c:	0e          	.byte	0x0e
    140d:	00          	.byte	0x00
    140e:	4907      	ldr	r1, [pc, #28]	; (142c <BK4819_GenTail+0x2e>)
    1410:	2052      	movs	r0, #82	; 0x52
    1412:	f7ff fc23 	bl	c5c <BK4819_WriteRegister>
    1416:	bd10      	pop	{r4, pc}
    1418:	4905      	ldr	r1, [pc, #20]	; (1430 <BK4819_GenTail+0x32>)
    141a:	e7f9      	b.n	1410 <BK4819_GenTail+0x12>
    141c:	4905      	ldr	r1, [pc, #20]	; (1434 <BK4819_GenTail+0x36>)
    141e:	e7f7      	b.n	1410 <BK4819_GenTail+0x12>
    1420:	4905      	ldr	r1, [pc, #20]	; (1438 <BK4819_GenTail+0x3a>)
    1422:	e7f5      	b.n	1410 <BK4819_GenTail+0x12>
    1424:	2007      	movs	r0, #7
    1426:	4905      	ldr	r1, [pc, #20]	; (143c <BK4819_GenTail+0x3e>)
    1428:	e7f3      	b.n	1412 <BK4819_GenTail+0x14>
    142a:	46c0      	nop			; (mov r8, r8)
    142c:	0000828f 	.word	0x0000828f
    1430:	0000a28f 	.word	0x0000a28f
    1434:	0000c28f 	.word	0x0000c28f
    1438:	0000e28f 	.word	0x0000e28f
    143c:	0000046f 	.word	0x0000046f

00001440 <BK4819_EnableCDCSS>:
    1440:	b510      	push	{r4, lr}
    1442:	2000      	movs	r0, #0
    1444:	f7ff ffdb 	bl	13fe <BK4819_GenTail>
    1448:	2051      	movs	r0, #81	; 0x51
    144a:	4902      	ldr	r1, [pc, #8]	; (1454 <BK4819_EnableCDCSS+0x14>)
    144c:	f7ff fc06 	bl	c5c <BK4819_WriteRegister>
    1450:	bd10      	pop	{r4, pc}
    1452:	46c0      	nop			; (mov r8, r8)
    1454:	0000804a 	.word	0x0000804a

00001458 <BK4819_EnableCTCSS>:
    1458:	b510      	push	{r4, lr}
    145a:	2004      	movs	r0, #4
    145c:	f7ff ffcf 	bl	13fe <BK4819_GenTail>
    1460:	2051      	movs	r0, #81	; 0x51
    1462:	4902      	ldr	r1, [pc, #8]	; (146c <BK4819_EnableCTCSS+0x14>)
    1464:	f7ff fbfa 	bl	c5c <BK4819_WriteRegister>
    1468:	bd10      	pop	{r4, pc}
    146a:	46c0      	nop			; (mov r8, r8)
    146c:	0000904a 	.word	0x0000904a

00001470 <BK4819_GetRSSI>:
    1470:	b510      	push	{r4, lr}
    1472:	2067      	movs	r0, #103	; 0x67
    1474:	f7ff fb68 	bl	b48 <BK4819_ReadRegister>
    1478:	05c0      	lsls	r0, r0, #23
    147a:	0dc0      	lsrs	r0, r0, #23
    147c:	bd10      	pop	{r4, pc}

0000147e <BK4819_GetFrequencyScanResult>:
    147e:	b570      	push	{r4, r5, r6, lr}
    1480:	0006      	movs	r6, r0
    1482:	200d      	movs	r0, #13
    1484:	f7ff fb60 	bl	b48 <BK4819_ReadRegister>
    1488:	b203      	sxth	r3, r0
    148a:	43dd      	mvns	r5, r3
    148c:	0004      	movs	r4, r0
    148e:	0fed      	lsrs	r5, r5, #31
    1490:	2b00      	cmp	r3, #0
    1492:	db07      	blt.n	14a4 <BK4819_GetFrequencyScanResult+0x26>
    1494:	200e      	movs	r0, #14
    1496:	f7ff fb57 	bl	b48 <BK4819_ReadRegister>
    149a:	4b03      	ldr	r3, [pc, #12]	; (14a8 <BK4819_GetFrequencyScanResult+0x2a>)
    149c:	0424      	lsls	r4, r4, #16
    149e:	401c      	ands	r4, r3
    14a0:	4304      	orrs	r4, r0
    14a2:	6034      	str	r4, [r6, #0]
    14a4:	0028      	movs	r0, r5
    14a6:	bd70      	pop	{r4, r5, r6, pc}
    14a8:	07ff0000 	.word	0x07ff0000

000014ac <BK4819_GetCxCSSScanResult>:
    14ac:	b570      	push	{r4, r5, r6, lr}
    14ae:	0005      	movs	r5, r0
    14b0:	2069      	movs	r0, #105	; 0x69
    14b2:	000e      	movs	r6, r1
    14b4:	f7ff fb48 	bl	b48 <BK4819_ReadRegister>
    14b8:	0004      	movs	r4, r0
    14ba:	0403      	lsls	r3, r0, #16
    14bc:	d40b      	bmi.n	14d6 <BK4819_GetCxCSSScanResult+0x2a>
    14be:	206a      	movs	r0, #106	; 0x6a
    14c0:	f7ff fb42 	bl	b48 <BK4819_ReadRegister>
    14c4:	4b0c      	ldr	r3, [pc, #48]	; (14f8 <BK4819_GetCxCSSScanResult+0x4c>)
    14c6:	0324      	lsls	r4, r4, #12
    14c8:	0500      	lsls	r0, r0, #20
    14ca:	0d00      	lsrs	r0, r0, #20
    14cc:	401c      	ands	r4, r3
    14ce:	4304      	orrs	r4, r0
    14d0:	2002      	movs	r0, #2
    14d2:	602c      	str	r4, [r5, #0]
    14d4:	bd70      	pop	{r4, r5, r6, pc}
    14d6:	2068      	movs	r0, #104	; 0x68
    14d8:	f7ff fb36 	bl	b48 <BK4819_ReadRegister>
    14dc:	0003      	movs	r3, r0
    14de:	2000      	movs	r0, #0
    14e0:	041a      	lsls	r2, r3, #16
    14e2:	d4f7      	bmi.n	14d4 <BK4819_GetCxCSSScanResult+0x28>
    14e4:	04d8      	lsls	r0, r3, #19
    14e6:	4b05      	ldr	r3, [pc, #20]	; (14fc <BK4819_GetCxCSSScanResult+0x50>)
    14e8:	0cc0      	lsrs	r0, r0, #19
    14ea:	4358      	muls	r0, r3
    14ec:	4904      	ldr	r1, [pc, #16]	; (1500 <BK4819_GetCxCSSScanResult+0x54>)
    14ee:	f00a fa8b 	bl	ba08 <__divsi3>
    14f2:	8030      	strh	r0, [r6, #0]
    14f4:	2001      	movs	r0, #1
    14f6:	e7ed      	b.n	14d4 <BK4819_GetCxCSSScanResult+0x28>
    14f8:	00fff000 	.word	0x00fff000
    14fc:	000012eb 	.word	0x000012eb
    1500:	00002710 	.word	0x00002710

00001504 <BK4819_DisableFrequencyScan>:
    1504:	2191      	movs	r1, #145	; 0x91
    1506:	b510      	push	{r4, lr}
    1508:	2032      	movs	r0, #50	; 0x32
    150a:	0089      	lsls	r1, r1, #2
    150c:	f7ff fba6 	bl	c5c <BK4819_WriteRegister>
    1510:	bd10      	pop	{r4, pc}

00001512 <BK4819_EnableFrequencyScan>:
    1512:	b510      	push	{r4, lr}
    1514:	2032      	movs	r0, #50	; 0x32
    1516:	4902      	ldr	r1, [pc, #8]	; (1520 <BK4819_EnableFrequencyScan+0xe>)
    1518:	f7ff fba0 	bl	c5c <BK4819_WriteRegister>
    151c:	bd10      	pop	{r4, pc}
    151e:	46c0      	nop			; (mov r8, r8)
    1520:	00000245 	.word	0x00000245

00001524 <BK4819_SetScanFrequency>:
    1524:	b510      	push	{r4, lr}
    1526:	f7ff fd2f 	bl	f88 <BK4819_SetFrequency>
    152a:	21c0      	movs	r1, #192	; 0xc0
    152c:	2051      	movs	r0, #81	; 0x51
    152e:	0089      	lsls	r1, r1, #2
    1530:	f7ff fb94 	bl	c5c <BK4819_WriteRegister>
    1534:	f7ff fd9a 	bl	106c <BK4819_RX_TurnOn>
    1538:	bd10      	pop	{r4, pc}

0000153a <BK4819_Disable>:
    153a:	b510      	push	{r4, lr}
    153c:	f7ff fe5c 	bl	11f8 <BK4819_Idle>
    1540:	bd10      	pop	{r4, pc}

00001542 <BK4819_StopScan>:
    1542:	b510      	push	{r4, lr}
    1544:	f7ff ffde 	bl	1504 <BK4819_DisableFrequencyScan>
    1548:	f7ff fe56 	bl	11f8 <BK4819_Idle>
    154c:	bd10      	pop	{r4, pc}

0000154e <BK4819_GetDTMF_5TONE_Code>:
    154e:	b510      	push	{r4, lr}
    1550:	200b      	movs	r0, #11
    1552:	f7ff faf9 	bl	b48 <BK4819_ReadRegister>
    1556:	0500      	lsls	r0, r0, #20
    1558:	0f00      	lsrs	r0, r0, #28
    155a:	bd10      	pop	{r4, pc}

0000155c <BK4819_GetCDCSSCodeType>:
    155c:	b510      	push	{r4, lr}
    155e:	200c      	movs	r0, #12
    1560:	f7ff faf2 	bl	b48 <BK4819_ReadRegister>
    1564:	0b80      	lsrs	r0, r0, #14
    1566:	b2c0      	uxtb	r0, r0
    1568:	bd10      	pop	{r4, pc}

0000156a <BK4819_GetCTCType>:
    156a:	b510      	push	{r4, lr}
    156c:	200c      	movs	r0, #12
    156e:	f7ff faeb 	bl	b48 <BK4819_ReadRegister>
    1572:	0500      	lsls	r0, r0, #20
    1574:	0f80      	lsrs	r0, r0, #30
    1576:	bd10      	pop	{r4, pc}

00001578 <BK4819_PlayRoger>:
    1578:	b510      	push	{r4, lr}
    157a:	f7ff fe0d 	bl	1198 <BK4819_EnterTxMute>
    157e:	2000      	movs	r0, #0
    1580:	f7ff fd18 	bl	fb4 <BK4819_SetAF>
    1584:	21e0      	movs	r1, #224	; 0xe0
    1586:	2070      	movs	r0, #112	; 0x70
    1588:	0209      	lsls	r1, r1, #8
    158a:	f7ff fb67 	bl	c5c <BK4819_WriteRegister>
    158e:	f7ff fe91 	bl	12b4 <BK4819_EnableTXLink>
    1592:	2032      	movs	r0, #50	; 0x32
    1594:	f000 fd60 	bl	2058 <SYSTEM_DelayMs>
    1598:	490f      	ldr	r1, [pc, #60]	; (15d8 <BK4819_PlayRoger+0x60>)
    159a:	2071      	movs	r0, #113	; 0x71
    159c:	f7ff fb5e 	bl	c5c <BK4819_WriteRegister>
    15a0:	f7ff fe02 	bl	11a8 <BK4819_ExitTxMute>
    15a4:	2050      	movs	r0, #80	; 0x50
    15a6:	f000 fd57 	bl	2058 <SYSTEM_DelayMs>
    15aa:	f7ff fdf5 	bl	1198 <BK4819_EnterTxMute>
    15ae:	490b      	ldr	r1, [pc, #44]	; (15dc <BK4819_PlayRoger+0x64>)
    15b0:	2071      	movs	r0, #113	; 0x71
    15b2:	f7ff fb53 	bl	c5c <BK4819_WriteRegister>
    15b6:	f7ff fdf7 	bl	11a8 <BK4819_ExitTxMute>
    15ba:	2050      	movs	r0, #80	; 0x50
    15bc:	f000 fd4c 	bl	2058 <SYSTEM_DelayMs>
    15c0:	f7ff fdea 	bl	1198 <BK4819_EnterTxMute>
    15c4:	2100      	movs	r1, #0
    15c6:	2070      	movs	r0, #112	; 0x70
    15c8:	f7ff fb48 	bl	c5c <BK4819_WriteRegister>
    15cc:	2030      	movs	r0, #48	; 0x30
    15ce:	4904      	ldr	r1, [pc, #16]	; (15e0 <BK4819_PlayRoger+0x68>)
    15d0:	f7ff fb44 	bl	c5c <BK4819_WriteRegister>
    15d4:	bd10      	pop	{r4, pc}
    15d6:	46c0      	nop			; (mov r8, r8)
    15d8:	0000142a 	.word	0x0000142a
    15dc:	00001c3b 	.word	0x00001c3b
    15e0:	0000c1fe 	.word	0x0000c1fe

000015e4 <BK4819_PlayRogerMDC>:
    15e4:	b570      	push	{r4, r5, r6, lr}
    15e6:	2000      	movs	r0, #0
    15e8:	f7ff fce4 	bl	fb4 <BK4819_SetAF>
    15ec:	2058      	movs	r0, #88	; 0x58
    15ee:	4923      	ldr	r1, [pc, #140]	; (167c <BK4819_PlayRogerMDC+0x98>)
    15f0:	f7ff fb34 	bl	c5c <BK4819_WriteRegister>
    15f4:	2072      	movs	r0, #114	; 0x72
    15f6:	4922      	ldr	r1, [pc, #136]	; (1680 <BK4819_PlayRogerMDC+0x9c>)
    15f8:	f7ff fb30 	bl	c5c <BK4819_WriteRegister>
    15fc:	21e0      	movs	r1, #224	; 0xe0
    15fe:	2070      	movs	r0, #112	; 0x70
    1600:	f7ff fb2c 	bl	c5c <BK4819_WriteRegister>
    1604:	21d0      	movs	r1, #208	; 0xd0
    1606:	205d      	movs	r0, #93	; 0x5d
    1608:	0109      	lsls	r1, r1, #4
    160a:	f7ff fb27 	bl	c5c <BK4819_WriteRegister>
    160e:	2059      	movs	r0, #89	; 0x59
    1610:	491c      	ldr	r1, [pc, #112]	; (1684 <BK4819_PlayRogerMDC+0xa0>)
    1612:	f7ff fb23 	bl	c5c <BK4819_WriteRegister>
    1616:	2168      	movs	r1, #104	; 0x68
    1618:	2059      	movs	r0, #89	; 0x59
    161a:	f7ff fb1f 	bl	c5c <BK4819_WriteRegister>
    161e:	205a      	movs	r0, #90	; 0x5a
    1620:	4919      	ldr	r1, [pc, #100]	; (1688 <BK4819_PlayRogerMDC+0xa4>)
    1622:	f7ff fb1b 	bl	c5c <BK4819_WriteRegister>
    1626:	205b      	movs	r0, #91	; 0x5b
    1628:	4918      	ldr	r1, [pc, #96]	; (168c <BK4819_PlayRogerMDC+0xa8>)
    162a:	f7ff fb17 	bl	c5c <BK4819_WriteRegister>
    162e:	205c      	movs	r0, #92	; 0x5c
    1630:	4917      	ldr	r1, [pc, #92]	; (1690 <BK4819_PlayRogerMDC+0xac>)
    1632:	f7ff fb13 	bl	c5c <BK4819_WriteRegister>
    1636:	4c17      	ldr	r4, [pc, #92]	; (1694 <BK4819_PlayRogerMDC+0xb0>)
    1638:	0025      	movs	r5, r4
    163a:	343e      	adds	r4, #62	; 0x3e
    163c:	3530      	adds	r5, #48	; 0x30
    163e:	8829      	ldrh	r1, [r5, #0]
    1640:	205f      	movs	r0, #95	; 0x5f
    1642:	3502      	adds	r5, #2
    1644:	f7ff fb0a 	bl	c5c <BK4819_WriteRegister>
    1648:	42a5      	cmp	r5, r4
    164a:	d1f8      	bne.n	163e <BK4819_PlayRogerMDC+0x5a>
    164c:	2014      	movs	r0, #20
    164e:	f000 fd03 	bl	2058 <SYSTEM_DelayMs>
    1652:	4911      	ldr	r1, [pc, #68]	; (1698 <BK4819_PlayRogerMDC+0xb4>)
    1654:	2059      	movs	r0, #89	; 0x59
    1656:	f7ff fb01 	bl	c5c <BK4819_WriteRegister>
    165a:	20b4      	movs	r0, #180	; 0xb4
    165c:	f000 fcfc 	bl	2058 <SYSTEM_DelayMs>
    1660:	2168      	movs	r1, #104	; 0x68
    1662:	2059      	movs	r0, #89	; 0x59
    1664:	f7ff fafa 	bl	c5c <BK4819_WriteRegister>
    1668:	2100      	movs	r1, #0
    166a:	2070      	movs	r0, #112	; 0x70
    166c:	f7ff faf6 	bl	c5c <BK4819_WriteRegister>
    1670:	2100      	movs	r1, #0
    1672:	2058      	movs	r0, #88	; 0x58
    1674:	f7ff faf2 	bl	c5c <BK4819_WriteRegister>
    1678:	bd70      	pop	{r4, r5, r6, pc}
    167a:	46c0      	nop			; (mov r8, r8)
    167c:	000037c3 	.word	0x000037c3
    1680:	00003065 	.word	0x00003065
    1684:	00008068 	.word	0x00008068
    1688:	00005555 	.word	0x00005555
    168c:	000055aa 	.word	0x000055aa
    1690:	0000aa30 	.word	0x0000aa30
    1694:	0000be44 	.word	0x0000be44
    1698:	00000868 	.word	0x00000868

0000169c <BK4819_Enable_AfDac_DiscMode_TxDsp>:
    169c:	b510      	push	{r4, lr}
    169e:	2100      	movs	r1, #0
    16a0:	2030      	movs	r0, #48	; 0x30
    16a2:	f7ff fadb 	bl	c5c <BK4819_WriteRegister>
    16a6:	2030      	movs	r0, #48	; 0x30
    16a8:	4901      	ldr	r1, [pc, #4]	; (16b0 <BK4819_Enable_AfDac_DiscMode_TxDsp+0x14>)
    16aa:	f7ff fad7 	bl	c5c <BK4819_WriteRegister>
    16ae:	bd10      	pop	{r4, pc}
    16b0:	00000302 	.word	0x00000302

000016b4 <BK4819_GetVoxAmp>:
    16b4:	b510      	push	{r4, lr}
    16b6:	0004      	movs	r4, r0
    16b8:	2064      	movs	r0, #100	; 0x64
    16ba:	f7ff fa45 	bl	b48 <BK4819_ReadRegister>
    16be:	0443      	lsls	r3, r0, #17
    16c0:	0c5b      	lsrs	r3, r3, #17
    16c2:	8023      	strh	r3, [r4, #0]
    16c4:	bd10      	pop	{r4, pc}

000016c6 <BK4819_PlayDTMFEx>:
    16c6:	b570      	push	{r4, r5, r6, lr}
    16c8:	0004      	movs	r4, r0
    16ca:	1e63      	subs	r3, r4, #1
    16cc:	419c      	sbcs	r4, r3
    16ce:	000d      	movs	r5, r1
    16d0:	f7ff fd55 	bl	117e <BK4819_EnableDTMF>
    16d4:	f7ff fd60 	bl	1198 <BK4819_EnterTxMute>
    16d8:	2003      	movs	r0, #3
    16da:	4264      	negs	r4, r4
    16dc:	4020      	ands	r0, r4
    16de:	f7ff fc69 	bl	fb4 <BK4819_SetAF>
    16e2:	4907      	ldr	r1, [pc, #28]	; (1700 <BK4819_PlayDTMFEx+0x3a>)
    16e4:	2070      	movs	r0, #112	; 0x70
    16e6:	f7ff fab9 	bl	c5c <BK4819_WriteRegister>
    16ea:	f7ff fde3 	bl	12b4 <BK4819_EnableTXLink>
    16ee:	2032      	movs	r0, #50	; 0x32
    16f0:	f000 fcb2 	bl	2058 <SYSTEM_DelayMs>
    16f4:	0028      	movs	r0, r5
    16f6:	f7ff fdfb 	bl	12f0 <BK4819_PlayDTMF>
    16fa:	f7ff fd55 	bl	11a8 <BK4819_ExitTxMute>
    16fe:	bd70      	pop	{r4, r5, r6, pc}
    1700:	0000d3d3 	.word	0x0000d3d3

00001704 <BK4819_ToggleAFBit>:
    1704:	b510      	push	{r4, lr}
    1706:	0004      	movs	r4, r0
    1708:	2047      	movs	r0, #71	; 0x47
    170a:	f7ff fa1d 	bl	b48 <BK4819_ReadRegister>
    170e:	4905      	ldr	r1, [pc, #20]	; (1724 <BK4819_ToggleAFBit+0x20>)
    1710:	4001      	ands	r1, r0
    1712:	2c00      	cmp	r4, #0
    1714:	d002      	beq.n	171c <BK4819_ToggleAFBit+0x18>
    1716:	2380      	movs	r3, #128	; 0x80
    1718:	005b      	lsls	r3, r3, #1
    171a:	4319      	orrs	r1, r3
    171c:	2047      	movs	r0, #71	; 0x47
    171e:	f7ff fa9d 	bl	c5c <BK4819_WriteRegister>
    1722:	bd10      	pop	{r4, pc}
    1724:	0000feff 	.word	0x0000feff

00001728 <BK4819_ToggleAFDAC>:
    1728:	b510      	push	{r4, lr}
    172a:	0004      	movs	r4, r0
    172c:	2030      	movs	r0, #48	; 0x30
    172e:	f7ff fa0b 	bl	b48 <BK4819_ReadRegister>
    1732:	4906      	ldr	r1, [pc, #24]	; (174c <BK4819_ToggleAFDAC+0x24>)
    1734:	4001      	ands	r1, r0
    1736:	2c00      	cmp	r4, #0
    1738:	d002      	beq.n	1740 <BK4819_ToggleAFDAC+0x18>
    173a:	2380      	movs	r3, #128	; 0x80
    173c:	009b      	lsls	r3, r3, #2
    173e:	4319      	orrs	r1, r3
    1740:	2030      	movs	r0, #48	; 0x30
    1742:	b289      	uxth	r1, r1
    1744:	f7ff fa8a 	bl	c5c <BK4819_WriteRegister>
    1748:	bd10      	pop	{r4, pc}
    174a:	46c0      	nop			; (mov r8, r8)
    174c:	fffffdff 	.word	0xfffffdff

00001750 <BK4819_TuneTo>:
    1750:	b570      	push	{r4, r5, r6, lr}
    1752:	0004      	movs	r4, r0
    1754:	000d      	movs	r5, r1
    1756:	f7ff fcc6 	bl	10e6 <BK4819_SelectFilter>
    175a:	0020      	movs	r0, r4
    175c:	f7ff fc14 	bl	f88 <BK4819_SetFrequency>
    1760:	2030      	movs	r0, #48	; 0x30
    1762:	f7ff f9f1 	bl	b48 <BK4819_ReadRegister>
    1766:	0004      	movs	r4, r0
    1768:	2d00      	cmp	r5, #0
    176a:	d009      	beq.n	1780 <BK4819_TuneTo+0x30>
    176c:	2180      	movs	r1, #128	; 0x80
    176e:	0089      	lsls	r1, r1, #2
    1770:	2030      	movs	r0, #48	; 0x30
    1772:	f7ff fa73 	bl	c5c <BK4819_WriteRegister>
    1776:	0021      	movs	r1, r4
    1778:	2030      	movs	r0, #48	; 0x30
    177a:	f7ff fa6f 	bl	c5c <BK4819_WriteRegister>
    177e:	bd70      	pop	{r4, r5, r6, pc}
    1780:	0441      	lsls	r1, r0, #17
    1782:	0c49      	lsrs	r1, r1, #17
    1784:	e7f4      	b.n	1770 <BK4819_TuneTo+0x20>

00001786 <BK4819_SetToneFrequency>:
    1786:	2367      	movs	r3, #103	; 0x67
    1788:	b510      	push	{r4, lr}
    178a:	210a      	movs	r1, #10
    178c:	4358      	muls	r0, r3
    178e:	f00a f8b1 	bl	b8f4 <__udivsi3>
    1792:	b281      	uxth	r1, r0
    1794:	2071      	movs	r0, #113	; 0x71
    1796:	f7ff fa61 	bl	c5c <BK4819_WriteRegister>
    179a:	bd10      	pop	{r4, pc}

0000179c <BK4819_PlayTone>:
    179c:	b570      	push	{r4, r5, r6, lr}
    179e:	000c      	movs	r4, r1
    17a0:	0005      	movs	r5, r0
    17a2:	f7ff fcf9 	bl	1198 <BK4819_EnterTxMute>
    17a6:	2003      	movs	r0, #3
    17a8:	f7ff fc04 	bl	fb4 <BK4819_SetAF>
    17ac:	4263      	negs	r3, r4
    17ae:	415c      	adcs	r4, r3
    17b0:	2388      	movs	r3, #136	; 0x88
    17b2:	4261      	negs	r1, r4
    17b4:	01db      	lsls	r3, r3, #7
    17b6:	4019      	ands	r1, r3
    17b8:	239c      	movs	r3, #156	; 0x9c
    17ba:	021b      	lsls	r3, r3, #8
    17bc:	18c9      	adds	r1, r1, r3
    17be:	2070      	movs	r0, #112	; 0x70
    17c0:	f7ff fa4c 	bl	c5c <BK4819_WriteRegister>
    17c4:	2100      	movs	r1, #0
    17c6:	2030      	movs	r0, #48	; 0x30
    17c8:	f7ff fa48 	bl	c5c <BK4819_WriteRegister>
    17cc:	4903      	ldr	r1, [pc, #12]	; (17dc <BK4819_PlayTone+0x40>)
    17ce:	2030      	movs	r0, #48	; 0x30
    17d0:	f7ff fa44 	bl	c5c <BK4819_WriteRegister>
    17d4:	0028      	movs	r0, r5
    17d6:	f7ff ffd6 	bl	1786 <BK4819_SetToneFrequency>
    17da:	bd70      	pop	{r4, r5, r6, pc}
    17dc:	00000302 	.word	0x00000302

000017e0 <BK4819_TransmitTone>:
    17e0:	b570      	push	{r4, r5, r6, lr}
    17e2:	000d      	movs	r5, r1
    17e4:	0004      	movs	r4, r0
    17e6:	f7ff fcd7 	bl	1198 <BK4819_EnterTxMute>
    17ea:	21e0      	movs	r1, #224	; 0xe0
    17ec:	2070      	movs	r0, #112	; 0x70
    17ee:	0209      	lsls	r1, r1, #8
    17f0:	f7ff fa34 	bl	c5c <BK4819_WriteRegister>
    17f4:	1e63      	subs	r3, r4, #1
    17f6:	419c      	sbcs	r4, r3
    17f8:	b2a8      	uxth	r0, r5
    17fa:	f7ff ffc4 	bl	1786 <BK4819_SetToneFrequency>
    17fe:	2003      	movs	r0, #3
    1800:	4264      	negs	r4, r4
    1802:	4020      	ands	r0, r4
    1804:	f7ff fbd6 	bl	fb4 <BK4819_SetAF>
    1808:	f7ff fd54 	bl	12b4 <BK4819_EnableTXLink>
    180c:	2032      	movs	r0, #50	; 0x32
    180e:	f000 fc23 	bl	2058 <SYSTEM_DelayMs>
    1812:	f7ff fcc9 	bl	11a8 <BK4819_ExitTxMute>
    1816:	bd70      	pop	{r4, r5, r6, pc}

00001818 <EEPROM_ReadBuffer>:
    1818:	b570      	push	{r4, r5, r6, lr}
    181a:	0004      	movs	r4, r0
    181c:	0016      	movs	r6, r2
    181e:	000d      	movs	r5, r1
    1820:	f000 f844 	bl	18ac <I2C_Start>
    1824:	20a0      	movs	r0, #160	; 0xa0
    1826:	f000 f901 	bl	1a2c <I2C_Write>
    182a:	0a20      	lsrs	r0, r4, #8
    182c:	f000 f8fe 	bl	1a2c <I2C_Write>
    1830:	b2e0      	uxtb	r0, r4
    1832:	f000 f8fb 	bl	1a2c <I2C_Write>
    1836:	f000 f839 	bl	18ac <I2C_Start>
    183a:	20a1      	movs	r0, #161	; 0xa1
    183c:	f000 f8f6 	bl	1a2c <I2C_Write>
    1840:	0031      	movs	r1, r6
    1842:	0028      	movs	r0, r5
    1844:	f000 f96a 	bl	1b1c <I2C_ReadBuffer>
    1848:	f000 f852 	bl	18f0 <I2C_Stop>
    184c:	bd70      	pop	{r4, r5, r6, pc}

0000184e <EEPROM_WriteBuffer>:
    184e:	b570      	push	{r4, r5, r6, lr}
    1850:	0004      	movs	r4, r0
    1852:	000d      	movs	r5, r1
    1854:	f000 f82a 	bl	18ac <I2C_Start>
    1858:	20a0      	movs	r0, #160	; 0xa0
    185a:	f000 f8e7 	bl	1a2c <I2C_Write>
    185e:	0a20      	lsrs	r0, r4, #8
    1860:	f000 f8e4 	bl	1a2c <I2C_Write>
    1864:	b2e0      	uxtb	r0, r4
    1866:	f000 f8e1 	bl	1a2c <I2C_Write>
    186a:	2108      	movs	r1, #8
    186c:	0028      	movs	r0, r5
    186e:	f000 f975 	bl	1b5c <I2C_WriteBuffer>
    1872:	f000 f83d 	bl	18f0 <I2C_Stop>
    1876:	200a      	movs	r0, #10
    1878:	f000 fbee 	bl	2058 <SYSTEM_DelayMs>
    187c:	bd70      	pop	{r4, r5, r6, pc}

0000187e <GPIO_ClearBit>:
    187e:	2201      	movs	r2, #1
    1880:	408a      	lsls	r2, r1
    1882:	6803      	ldr	r3, [r0, #0]
    1884:	4393      	bics	r3, r2
    1886:	6003      	str	r3, [r0, #0]
    1888:	4770      	bx	lr

0000188a <GPIO_CheckBit>:
    188a:	6800      	ldr	r0, [r0, #0]
    188c:	2301      	movs	r3, #1
    188e:	40c8      	lsrs	r0, r1
    1890:	4018      	ands	r0, r3
    1892:	4770      	bx	lr

00001894 <GPIO_FlipBit>:
    1894:	2301      	movs	r3, #1
    1896:	408b      	lsls	r3, r1
    1898:	6802      	ldr	r2, [r0, #0]
    189a:	4053      	eors	r3, r2
    189c:	6003      	str	r3, [r0, #0]
    189e:	4770      	bx	lr

000018a0 <GPIO_SetBit>:
    18a0:	2301      	movs	r3, #1
    18a2:	408b      	lsls	r3, r1
    18a4:	6802      	ldr	r2, [r0, #0]
    18a6:	4313      	orrs	r3, r2
    18a8:	6003      	str	r3, [r0, #0]
    18aa:	4770      	bx	lr

000018ac <I2C_Start>:
    18ac:	b510      	push	{r4, lr}
    18ae:	4c0f      	ldr	r4, [pc, #60]	; (18ec <I2C_Start+0x40>)
    18b0:	210b      	movs	r1, #11
    18b2:	0020      	movs	r0, r4
    18b4:	f7ff fff4 	bl	18a0 <GPIO_SetBit>
    18b8:	2001      	movs	r0, #1
    18ba:	f000 fc05 	bl	20c8 <SYSTICK_DelayUs>
    18be:	210a      	movs	r1, #10
    18c0:	0020      	movs	r0, r4
    18c2:	f7ff ffed 	bl	18a0 <GPIO_SetBit>
    18c6:	2001      	movs	r0, #1
    18c8:	f000 fbfe 	bl	20c8 <SYSTICK_DelayUs>
    18cc:	210b      	movs	r1, #11
    18ce:	0020      	movs	r0, r4
    18d0:	f7ff ffd5 	bl	187e <GPIO_ClearBit>
    18d4:	2001      	movs	r0, #1
    18d6:	f000 fbf7 	bl	20c8 <SYSTICK_DelayUs>
    18da:	210a      	movs	r1, #10
    18dc:	0020      	movs	r0, r4
    18de:	f7ff ffce 	bl	187e <GPIO_ClearBit>
    18e2:	2001      	movs	r0, #1
    18e4:	f000 fbf0 	bl	20c8 <SYSTICK_DelayUs>
    18e8:	bd10      	pop	{r4, pc}
    18ea:	46c0      	nop			; (mov r8, r8)
    18ec:	40060000 	.word	0x40060000

000018f0 <I2C_Stop>:
    18f0:	b510      	push	{r4, lr}
    18f2:	4c0f      	ldr	r4, [pc, #60]	; (1930 <I2C_Stop+0x40>)
    18f4:	210b      	movs	r1, #11
    18f6:	0020      	movs	r0, r4
    18f8:	f7ff ffc1 	bl	187e <GPIO_ClearBit>
    18fc:	2001      	movs	r0, #1
    18fe:	f000 fbe3 	bl	20c8 <SYSTICK_DelayUs>
    1902:	210a      	movs	r1, #10
    1904:	0020      	movs	r0, r4
    1906:	f7ff ffba 	bl	187e <GPIO_ClearBit>
    190a:	2001      	movs	r0, #1
    190c:	f000 fbdc 	bl	20c8 <SYSTICK_DelayUs>
    1910:	210a      	movs	r1, #10
    1912:	0020      	movs	r0, r4
    1914:	f7ff ffc4 	bl	18a0 <GPIO_SetBit>
    1918:	2001      	movs	r0, #1
    191a:	f000 fbd5 	bl	20c8 <SYSTICK_DelayUs>
    191e:	210b      	movs	r1, #11
    1920:	0020      	movs	r0, r4
    1922:	f7ff ffbd 	bl	18a0 <GPIO_SetBit>
    1926:	2001      	movs	r0, #1
    1928:	f000 fbce 	bl	20c8 <SYSTICK_DelayUs>
    192c:	bd10      	pop	{r4, pc}
    192e:	46c0      	nop			; (mov r8, r8)
    1930:	40060000 	.word	0x40060000

00001934 <I2C_Read>:
    1934:	2380      	movs	r3, #128	; 0x80
    1936:	b5f0      	push	{r4, r5, r6, r7, lr}
    1938:	4f38      	ldr	r7, [pc, #224]	; (1a1c <I2C_Read+0xe8>)
    193a:	011b      	lsls	r3, r3, #4
    193c:	683a      	ldr	r2, [r7, #0]
    193e:	b085      	sub	sp, #20
    1940:	4313      	orrs	r3, r2
    1942:	4e37      	ldr	r6, [pc, #220]	; (1a20 <I2C_Read+0xec>)
    1944:	9003      	str	r0, [sp, #12]
    1946:	603b      	str	r3, [r7, #0]
    1948:	6833      	ldr	r3, [r6, #0]
    194a:	4a36      	ldr	r2, [pc, #216]	; (1a24 <I2C_Read+0xf0>)
    194c:	4d36      	ldr	r5, [pc, #216]	; (1a28 <I2C_Read+0xf4>)
    194e:	4013      	ands	r3, r2
    1950:	6033      	str	r3, [r6, #0]
    1952:	686b      	ldr	r3, [r5, #4]
    1954:	2401      	movs	r4, #1
    1956:	4013      	ands	r3, r2
    1958:	606b      	str	r3, [r5, #4]
    195a:	2308      	movs	r3, #8
    195c:	9302      	str	r3, [sp, #8]
    195e:	2300      	movs	r3, #0
    1960:	9301      	str	r3, [sp, #4]
    1962:	210a      	movs	r1, #10
    1964:	4830      	ldr	r0, [pc, #192]	; (1a28 <I2C_Read+0xf4>)
    1966:	f7ff ff8a 	bl	187e <GPIO_ClearBit>
    196a:	0020      	movs	r0, r4
    196c:	f000 fbac 	bl	20c8 <SYSTICK_DelayUs>
    1970:	210a      	movs	r1, #10
    1972:	482d      	ldr	r0, [pc, #180]	; (1a28 <I2C_Read+0xf4>)
    1974:	f7ff ff94 	bl	18a0 <GPIO_SetBit>
    1978:	0020      	movs	r0, r4
    197a:	f000 fba5 	bl	20c8 <SYSTICK_DelayUs>
    197e:	9b01      	ldr	r3, [sp, #4]
    1980:	0020      	movs	r0, r4
    1982:	005b      	lsls	r3, r3, #1
    1984:	b2db      	uxtb	r3, r3
    1986:	9301      	str	r3, [sp, #4]
    1988:	f000 fb9e 	bl	20c8 <SYSTICK_DelayUs>
    198c:	210b      	movs	r1, #11
    198e:	4826      	ldr	r0, [pc, #152]	; (1a28 <I2C_Read+0xf4>)
    1990:	f7ff ff7b 	bl	188a <GPIO_CheckBit>
    1994:	2800      	cmp	r0, #0
    1996:	d002      	beq.n	199e <I2C_Read+0x6a>
    1998:	9b01      	ldr	r3, [sp, #4]
    199a:	4323      	orrs	r3, r4
    199c:	9301      	str	r3, [sp, #4]
    199e:	210a      	movs	r1, #10
    19a0:	4821      	ldr	r0, [pc, #132]	; (1a28 <I2C_Read+0xf4>)
    19a2:	f7ff ff6c 	bl	187e <GPIO_ClearBit>
    19a6:	0020      	movs	r0, r4
    19a8:	f000 fb8e 	bl	20c8 <SYSTICK_DelayUs>
    19ac:	9b02      	ldr	r3, [sp, #8]
    19ae:	3b01      	subs	r3, #1
    19b0:	b2db      	uxtb	r3, r3
    19b2:	9302      	str	r3, [sp, #8]
    19b4:	2b00      	cmp	r3, #0
    19b6:	d1d4      	bne.n	1962 <I2C_Read+0x2e>
    19b8:	683b      	ldr	r3, [r7, #0]
    19ba:	4a1a      	ldr	r2, [pc, #104]	; (1a24 <I2C_Read+0xf0>)
    19bc:	210a      	movs	r1, #10
    19be:	4013      	ands	r3, r2
    19c0:	603b      	str	r3, [r7, #0]
    19c2:	2380      	movs	r3, #128	; 0x80
    19c4:	6832      	ldr	r2, [r6, #0]
    19c6:	011b      	lsls	r3, r3, #4
    19c8:	431a      	orrs	r2, r3
    19ca:	6032      	str	r2, [r6, #0]
    19cc:	686a      	ldr	r2, [r5, #4]
    19ce:	4816      	ldr	r0, [pc, #88]	; (1a28 <I2C_Read+0xf4>)
    19d0:	4313      	orrs	r3, r2
    19d2:	606b      	str	r3, [r5, #4]
    19d4:	f7ff ff53 	bl	187e <GPIO_ClearBit>
    19d8:	2001      	movs	r0, #1
    19da:	f000 fb75 	bl	20c8 <SYSTICK_DelayUs>
    19de:	9b03      	ldr	r3, [sp, #12]
    19e0:	210b      	movs	r1, #11
    19e2:	4811      	ldr	r0, [pc, #68]	; (1a28 <I2C_Read+0xf4>)
    19e4:	2b00      	cmp	r3, #0
    19e6:	d015      	beq.n	1a14 <I2C_Read+0xe0>
    19e8:	f7ff ff5a 	bl	18a0 <GPIO_SetBit>
    19ec:	2001      	movs	r0, #1
    19ee:	f000 fb6b 	bl	20c8 <SYSTICK_DelayUs>
    19f2:	210a      	movs	r1, #10
    19f4:	480c      	ldr	r0, [pc, #48]	; (1a28 <I2C_Read+0xf4>)
    19f6:	f7ff ff53 	bl	18a0 <GPIO_SetBit>
    19fa:	2001      	movs	r0, #1
    19fc:	f000 fb64 	bl	20c8 <SYSTICK_DelayUs>
    1a00:	210a      	movs	r1, #10
    1a02:	4809      	ldr	r0, [pc, #36]	; (1a28 <I2C_Read+0xf4>)
    1a04:	f7ff ff3b 	bl	187e <GPIO_ClearBit>
    1a08:	2001      	movs	r0, #1
    1a0a:	f000 fb5d 	bl	20c8 <SYSTICK_DelayUs>
    1a0e:	9801      	ldr	r0, [sp, #4]
    1a10:	b005      	add	sp, #20
    1a12:	bdf0      	pop	{r4, r5, r6, r7, pc}
    1a14:	f7ff ff33 	bl	187e <GPIO_ClearBit>
    1a18:	e7e8      	b.n	19ec <I2C_Read+0xb8>
    1a1a:	46c0      	nop			; (mov r8, r8)
    1a1c:	400b0100 	.word	0x400b0100
    1a20:	400b0400 	.word	0x400b0400
    1a24:	fffff7ff 	.word	0xfffff7ff
    1a28:	40060000 	.word	0x40060000

00001a2c <I2C_Write>:
    1a2c:	b5f8      	push	{r3, r4, r5, r6, r7, lr}
    1a2e:	210a      	movs	r1, #10
    1a30:	0004      	movs	r4, r0
    1a32:	4836      	ldr	r0, [pc, #216]	; (1b0c <I2C_Write+0xe0>)
    1a34:	f7ff ff23 	bl	187e <GPIO_ClearBit>
    1a38:	2001      	movs	r0, #1
    1a3a:	f000 fb45 	bl	20c8 <SYSTICK_DelayUs>
    1a3e:	2608      	movs	r6, #8
    1a40:	2701      	movs	r7, #1
    1a42:	4d32      	ldr	r5, [pc, #200]	; (1b0c <I2C_Write+0xe0>)
    1a44:	b263      	sxtb	r3, r4
    1a46:	210b      	movs	r1, #11
    1a48:	4830      	ldr	r0, [pc, #192]	; (1b0c <I2C_Write+0xe0>)
    1a4a:	2b00      	cmp	r3, #0
    1a4c:	db59      	blt.n	1b02 <I2C_Write+0xd6>
    1a4e:	f7ff ff16 	bl	187e <GPIO_ClearBit>
    1a52:	0038      	movs	r0, r7
    1a54:	f000 fb38 	bl	20c8 <SYSTICK_DelayUs>
    1a58:	210a      	movs	r1, #10
    1a5a:	482c      	ldr	r0, [pc, #176]	; (1b0c <I2C_Write+0xe0>)
    1a5c:	f7ff ff20 	bl	18a0 <GPIO_SetBit>
    1a60:	0038      	movs	r0, r7
    1a62:	f000 fb31 	bl	20c8 <SYSTICK_DelayUs>
    1a66:	3e01      	subs	r6, #1
    1a68:	210a      	movs	r1, #10
    1a6a:	4828      	ldr	r0, [pc, #160]	; (1b0c <I2C_Write+0xe0>)
    1a6c:	f7ff ff07 	bl	187e <GPIO_ClearBit>
    1a70:	0064      	lsls	r4, r4, #1
    1a72:	0038      	movs	r0, r7
    1a74:	b2f6      	uxtb	r6, r6
    1a76:	f000 fb27 	bl	20c8 <SYSTICK_DelayUs>
    1a7a:	b2e4      	uxtb	r4, r4
    1a7c:	2e00      	cmp	r6, #0
    1a7e:	d1e1      	bne.n	1a44 <I2C_Write+0x18>
    1a80:	2380      	movs	r3, #128	; 0x80
    1a82:	4f23      	ldr	r7, [pc, #140]	; (1b10 <I2C_Write+0xe4>)
    1a84:	011b      	lsls	r3, r3, #4
    1a86:	683a      	ldr	r2, [r7, #0]
    1a88:	4e22      	ldr	r6, [pc, #136]	; (1b14 <I2C_Write+0xe8>)
    1a8a:	4313      	orrs	r3, r2
    1a8c:	603b      	str	r3, [r7, #0]
    1a8e:	4a22      	ldr	r2, [pc, #136]	; (1b18 <I2C_Write+0xec>)
    1a90:	6833      	ldr	r3, [r6, #0]
    1a92:	210b      	movs	r1, #11
    1a94:	4013      	ands	r3, r2
    1a96:	6033      	str	r3, [r6, #0]
    1a98:	686b      	ldr	r3, [r5, #4]
    1a9a:	481c      	ldr	r0, [pc, #112]	; (1b0c <I2C_Write+0xe0>)
    1a9c:	4013      	ands	r3, r2
    1a9e:	606b      	str	r3, [r5, #4]
    1aa0:	f7ff fefe 	bl	18a0 <GPIO_SetBit>
    1aa4:	2001      	movs	r0, #1
    1aa6:	f000 fb0f 	bl	20c8 <SYSTICK_DelayUs>
    1aaa:	210a      	movs	r1, #10
    1aac:	4817      	ldr	r0, [pc, #92]	; (1b0c <I2C_Write+0xe0>)
    1aae:	f7ff fef7 	bl	18a0 <GPIO_SetBit>
    1ab2:	2001      	movs	r0, #1
    1ab4:	f000 fb08 	bl	20c8 <SYSTICK_DelayUs>
    1ab8:	24ff      	movs	r4, #255	; 0xff
    1aba:	210b      	movs	r1, #11
    1abc:	4813      	ldr	r0, [pc, #76]	; (1b0c <I2C_Write+0xe0>)
    1abe:	f7ff fee4 	bl	188a <GPIO_CheckBit>
    1ac2:	2800      	cmp	r0, #0
    1ac4:	d020      	beq.n	1b08 <I2C_Write+0xdc>
    1ac6:	3c01      	subs	r4, #1
    1ac8:	b2e4      	uxtb	r4, r4
    1aca:	2c00      	cmp	r4, #0
    1acc:	d1f5      	bne.n	1aba <I2C_Write+0x8e>
    1ace:	3c01      	subs	r4, #1
    1ad0:	210a      	movs	r1, #10
    1ad2:	480e      	ldr	r0, [pc, #56]	; (1b0c <I2C_Write+0xe0>)
    1ad4:	f7ff fed3 	bl	187e <GPIO_ClearBit>
    1ad8:	2001      	movs	r0, #1
    1ada:	f000 faf5 	bl	20c8 <SYSTICK_DelayUs>
    1ade:	683b      	ldr	r3, [r7, #0]
    1ae0:	4a0d      	ldr	r2, [pc, #52]	; (1b18 <I2C_Write+0xec>)
    1ae2:	210b      	movs	r1, #11
    1ae4:	4013      	ands	r3, r2
    1ae6:	603b      	str	r3, [r7, #0]
    1ae8:	2380      	movs	r3, #128	; 0x80
    1aea:	6832      	ldr	r2, [r6, #0]
    1aec:	011b      	lsls	r3, r3, #4
    1aee:	431a      	orrs	r2, r3
    1af0:	6032      	str	r2, [r6, #0]
    1af2:	686a      	ldr	r2, [r5, #4]
    1af4:	4805      	ldr	r0, [pc, #20]	; (1b0c <I2C_Write+0xe0>)
    1af6:	4313      	orrs	r3, r2
    1af8:	606b      	str	r3, [r5, #4]
    1afa:	f7ff fed1 	bl	18a0 <GPIO_SetBit>
    1afe:	0020      	movs	r0, r4
    1b00:	bdf8      	pop	{r3, r4, r5, r6, r7, pc}
    1b02:	f7ff fecd 	bl	18a0 <GPIO_SetBit>
    1b06:	e7a4      	b.n	1a52 <I2C_Write+0x26>
    1b08:	0004      	movs	r4, r0
    1b0a:	e7e1      	b.n	1ad0 <I2C_Write+0xa4>
    1b0c:	40060000 	.word	0x40060000
    1b10:	400b0100 	.word	0x400b0100
    1b14:	400b0400 	.word	0x400b0400
    1b18:	fffff7ff 	.word	0xfffff7ff

00001b1c <I2C_ReadBuffer>:
    1b1c:	b5f8      	push	{r3, r4, r5, r6, r7, lr}
    1b1e:	0006      	movs	r6, r0
    1b20:	000c      	movs	r4, r1
    1b22:	2500      	movs	r5, #0
    1b24:	2901      	cmp	r1, #1
    1b26:	d10d      	bne.n	1b44 <I2C_ReadBuffer+0x28>
    1b28:	0008      	movs	r0, r1
    1b2a:	f7ff ff03 	bl	1934 <I2C_Read>
    1b2e:	7030      	strb	r0, [r6, #0]
    1b30:	0020      	movs	r0, r4
    1b32:	bdf8      	pop	{r3, r4, r5, r6, r7, pc}
    1b34:	f000 fac8 	bl	20c8 <SYSTICK_DelayUs>
    1b38:	2000      	movs	r0, #0
    1b3a:	f7ff fefb 	bl	1934 <I2C_Read>
    1b3e:	3501      	adds	r5, #1
    1b40:	7038      	strb	r0, [r7, #0]
    1b42:	b2ed      	uxtb	r5, r5
    1b44:	1e63      	subs	r3, r4, #1
    1b46:	2001      	movs	r0, #1
    1b48:	1977      	adds	r7, r6, r5
    1b4a:	429d      	cmp	r5, r3
    1b4c:	dbf2      	blt.n	1b34 <I2C_ReadBuffer+0x18>
    1b4e:	f000 fabb 	bl	20c8 <SYSTICK_DelayUs>
    1b52:	2001      	movs	r0, #1
    1b54:	f7ff feee 	bl	1934 <I2C_Read>
    1b58:	7038      	strb	r0, [r7, #0]
    1b5a:	e7e9      	b.n	1b30 <I2C_ReadBuffer+0x14>

00001b5c <I2C_WriteBuffer>:
    1b5c:	b570      	push	{r4, r5, r6, lr}
    1b5e:	0004      	movs	r4, r0
    1b60:	1845      	adds	r5, r0, r1
    1b62:	42ac      	cmp	r4, r5
    1b64:	d101      	bne.n	1b6a <I2C_WriteBuffer+0xe>
    1b66:	2000      	movs	r0, #0
    1b68:	bd70      	pop	{r4, r5, r6, pc}
    1b6a:	7820      	ldrb	r0, [r4, #0]
    1b6c:	f7ff ff5e 	bl	1a2c <I2C_Write>
    1b70:	3401      	adds	r4, #1
    1b72:	2800      	cmp	r0, #0
    1b74:	daf5      	bge.n	1b62 <I2C_WriteBuffer+0x6>
    1b76:	2001      	movs	r0, #1
    1b78:	4240      	negs	r0, r0
    1b7a:	e7f5      	b.n	1b68 <I2C_WriteBuffer+0xc>

00001b7c <KEYBOARD_Poll>:
    1b7c:	b5f7      	push	{r0, r1, r2, r4, r5, r6, r7, lr}
    1b7e:	2500      	movs	r5, #0
    1b80:	22f0      	movs	r2, #240	; 0xf0
    1b82:	4e24      	ldr	r6, [pc, #144]	; (1c14 <KEYBOARD_Poll+0x98>)
    1b84:	0192      	lsls	r2, r2, #6
    1b86:	6833      	ldr	r3, [r6, #0]
    1b88:	2400      	movs	r4, #0
    1b8a:	4313      	orrs	r3, r2
    1b8c:	2206      	movs	r2, #6
    1b8e:	436a      	muls	r2, r5
    1b90:	4921      	ldr	r1, [pc, #132]	; (1c18 <KEYBOARD_Poll+0x9c>)
    1b92:	6033      	str	r3, [r6, #0]
    1b94:	6833      	ldr	r3, [r6, #0]
    1b96:	5a52      	ldrh	r2, [r2, r1]
    1b98:	0027      	movs	r7, r4
    1b9a:	4013      	ands	r3, r2
    1b9c:	6033      	str	r3, [r6, #0]
    1b9e:	2308      	movs	r3, #8
    1ba0:	9301      	str	r3, [sp, #4]
    1ba2:	2001      	movs	r0, #1
    1ba4:	f000 fa90 	bl	20c8 <SYSTICK_DelayUs>
    1ba8:	6832      	ldr	r2, [r6, #0]
    1baa:	003b      	movs	r3, r7
    1bac:	b297      	uxth	r7, r2
    1bae:	42bb      	cmp	r3, r7
    1bb0:	d000      	beq.n	1bb4 <KEYBOARD_Poll+0x38>
    1bb2:	2400      	movs	r4, #0
    1bb4:	3401      	adds	r4, #1
    1bb6:	b2e4      	uxtb	r4, r4
    1bb8:	2c03      	cmp	r4, #3
    1bba:	d007      	beq.n	1bcc <KEYBOARD_Poll+0x50>
    1bbc:	9b01      	ldr	r3, [sp, #4]
    1bbe:	3b01      	subs	r3, #1
    1bc0:	b2db      	uxtb	r3, r3
    1bc2:	9301      	str	r3, [sp, #4]
    1bc4:	2b00      	cmp	r3, #0
    1bc6:	d1ec      	bne.n	1ba2 <KEYBOARD_Poll+0x26>
    1bc8:	24ff      	movs	r4, #255	; 0xff
    1bca:	e00f      	b.n	1bec <KEYBOARD_Poll+0x70>
    1bcc:	2106      	movs	r1, #6
    1bce:	2300      	movs	r3, #0
    1bd0:	2001      	movs	r0, #1
    1bd2:	4369      	muls	r1, r5
    1bd4:	4a10      	ldr	r2, [pc, #64]	; (1c18 <KEYBOARD_Poll+0x9c>)
    1bd6:	1851      	adds	r1, r2, r1
    1bd8:	0006      	movs	r6, r0
    1bda:	18ca      	adds	r2, r1, r3
    1bdc:	7892      	ldrb	r2, [r2, #2]
    1bde:	1c14      	adds	r4, r2, #0
    1be0:	0952      	lsrs	r2, r2, #5
    1be2:	4096      	lsls	r6, r2
    1be4:	423e      	tst	r6, r7
    1be6:	d10d      	bne.n	1c04 <KEYBOARD_Poll+0x88>
    1be8:	06e4      	lsls	r4, r4, #27
    1bea:	0ee4      	lsrs	r4, r4, #27
    1bec:	f7ff fe80 	bl	18f0 <I2C_Stop>
    1bf0:	210c      	movs	r1, #12
    1bf2:	4808      	ldr	r0, [pc, #32]	; (1c14 <KEYBOARD_Poll+0x98>)
    1bf4:	f7ff fe43 	bl	187e <GPIO_ClearBit>
    1bf8:	210d      	movs	r1, #13
    1bfa:	4806      	ldr	r0, [pc, #24]	; (1c14 <KEYBOARD_Poll+0x98>)
    1bfc:	f7ff fe50 	bl	18a0 <GPIO_SetBit>
    1c00:	0020      	movs	r0, r4
    1c02:	bdfe      	pop	{r1, r2, r3, r4, r5, r6, r7, pc}
    1c04:	3301      	adds	r3, #1
    1c06:	2b04      	cmp	r3, #4
    1c08:	d1e6      	bne.n	1bd8 <KEYBOARD_Poll+0x5c>
    1c0a:	3501      	adds	r5, #1
    1c0c:	2d05      	cmp	r5, #5
    1c0e:	d1b7      	bne.n	1b80 <KEYBOARD_Poll+0x4>
    1c10:	e7da      	b.n	1bc8 <KEYBOARD_Poll+0x4c>
    1c12:	46c0      	nop			; (mov r8, r8)
    1c14:	40060000 	.word	0x40060000
    1c18:	0000be82 	.word	0x0000be82

00001c1c <SPI_WaitForUndocumentedTxFifoStatusBit>:
    1c1c:	2120      	movs	r1, #32
    1c1e:	4b04      	ldr	r3, [pc, #16]	; (1c30 <SPI_WaitForUndocumentedTxFifoStatusBit+0x14>)
    1c20:	4a04      	ldr	r2, [pc, #16]	; (1c34 <SPI_WaitForUndocumentedTxFifoStatusBit+0x18>)
    1c22:	6950      	ldr	r0, [r2, #20]
    1c24:	4208      	tst	r0, r1
    1c26:	d002      	beq.n	1c2e <SPI_WaitForUndocumentedTxFifoStatusBit+0x12>
    1c28:	3b01      	subs	r3, #1
    1c2a:	2b00      	cmp	r3, #0
    1c2c:	d1f9      	bne.n	1c22 <SPI_WaitForUndocumentedTxFifoStatusBit+0x6>
    1c2e:	4770      	bx	lr
    1c30:	000186a1 	.word	0x000186a1
    1c34:	400b8000 	.word	0x400b8000

00001c38 <SPI_Disable>:
    1c38:	2208      	movs	r2, #8
    1c3a:	6803      	ldr	r3, [r0, #0]
    1c3c:	4393      	bics	r3, r2
    1c3e:	6003      	str	r3, [r0, #0]
    1c40:	4770      	bx	lr

00001c42 <SPI_Configure>:
    1c42:	b5f0      	push	{r4, r5, r6, r7, lr}
    1c44:	4c30      	ldr	r4, [pc, #192]	; (1d08 <SPI_Configure+0xc6>)
    1c46:	42a0      	cmp	r0, r4
    1c48:	d14f      	bne.n	1cea <SPI_Configure+0xa8>
    1c4a:	2380      	movs	r3, #128	; 0x80
    1c4c:	4a2f      	ldr	r2, [pc, #188]	; (1d0c <SPI_Configure+0xca>)
    1c4e:	00db      	lsls	r3, r3, #3
    1c50:	6815      	ldr	r5, [r2, #0]
    1c52:	432b      	orrs	r3, r5
    1c54:	6013      	str	r3, [r2, #0]
    1c56:	2608      	movs	r6, #8
    1c58:	2507      	movs	r5, #7
    1c5a:	6803      	ldr	r3, [r0, #0]
    1c5c:	2720      	movs	r7, #32
    1c5e:	43b3      	bics	r3, r6
    1c60:	6003      	str	r3, [r0, #0]
    1c62:	784b      	ldrb	r3, [r1, #1]
    1c64:	6802      	ldr	r2, [r0, #0]
    1c66:	402b      	ands	r3, r5
    1c68:	4d29      	ldr	r5, [pc, #164]	; (1d10 <SPI_Configure+0xce>)
    1c6a:	402a      	ands	r2, r5
    1c6c:	2510      	movs	r5, #16
    1c6e:	4313      	orrs	r3, r2
    1c70:	788a      	ldrb	r2, [r1, #2]
    1c72:	0112      	lsls	r2, r2, #4
    1c74:	402a      	ands	r2, r5
    1c76:	4313      	orrs	r3, r2
    1c78:	78ca      	ldrb	r2, [r1, #3]
    1c7a:	0152      	lsls	r2, r2, #5
    1c7c:	403a      	ands	r2, r7
    1c7e:	4313      	orrs	r3, r2
    1c80:	780a      	ldrb	r2, [r1, #0]
    1c82:	19ff      	adds	r7, r7, r7
    1c84:	0192      	lsls	r2, r2, #6
    1c86:	403a      	ands	r2, r7
    1c88:	4313      	orrs	r3, r2
    1c8a:	790a      	ldrb	r2, [r1, #4]
    1c8c:	37bf      	adds	r7, #191	; 0xbf
    1c8e:	01d2      	lsls	r2, r2, #7
    1c90:	403a      	ands	r2, r7
    1c92:	4313      	orrs	r3, r2
    1c94:	798a      	ldrb	r2, [r1, #6]
    1c96:	794f      	ldrb	r7, [r1, #5]
    1c98:	07d2      	lsls	r2, r2, #31
    1c9a:	40ea      	lsrs	r2, r5
    1c9c:	4313      	orrs	r3, r2
    1c9e:	2280      	movs	r2, #128	; 0x80
    1ca0:	40af      	lsls	r7, r5
    1ca2:	0252      	lsls	r2, r2, #9
    1ca4:	4017      	ands	r7, r2
    1ca6:	433b      	orrs	r3, r7
    1ca8:	6003      	str	r3, [r0, #0]
    1caa:	2302      	movs	r3, #2
    1cac:	2204      	movs	r2, #4
    1cae:	7a8f      	ldrb	r7, [r1, #10]
    1cb0:	007f      	lsls	r7, r7, #1
    1cb2:	401f      	ands	r7, r3
    1cb4:	7a4b      	ldrb	r3, [r1, #9]
    1cb6:	009b      	lsls	r3, r3, #2
    1cb8:	4013      	ands	r3, r2
    1cba:	433b      	orrs	r3, r7
    1cbc:	7acf      	ldrb	r7, [r1, #11]
    1cbe:	3a03      	subs	r2, #3
    1cc0:	4017      	ands	r7, r2
    1cc2:	433b      	orrs	r3, r7
    1cc4:	7a0f      	ldrb	r7, [r1, #8]
    1cc6:	79c9      	ldrb	r1, [r1, #7]
    1cc8:	00ff      	lsls	r7, r7, #3
    1cca:	403e      	ands	r6, r7
    1ccc:	0109      	lsls	r1, r1, #4
    1cce:	4333      	orrs	r3, r6
    1cd0:	400d      	ands	r5, r1
    1cd2:	432b      	orrs	r3, r5
    1cd4:	6103      	str	r3, [r0, #16]
    1cd6:	6903      	ldr	r3, [r0, #16]
    1cd8:	2b00      	cmp	r3, #0
    1cda:	d005      	beq.n	1ce8 <SPI_Configure+0xa6>
    1cdc:	42a0      	cmp	r0, r4
    1cde:	d10c      	bne.n	1cfa <SPI_Configure+0xb8>
    1ce0:	2280      	movs	r2, #128	; 0x80
    1ce2:	4b0c      	ldr	r3, [pc, #48]	; (1d14 <SPI_Configure+0xd2>)
    1ce4:	0252      	lsls	r2, r2, #9
    1ce6:	601a      	str	r2, [r3, #0]
    1ce8:	bdf0      	pop	{r4, r5, r6, r7, pc}
    1cea:	4b0b      	ldr	r3, [pc, #44]	; (1d18 <SPI_Configure+0xd6>)
    1cec:	4298      	cmp	r0, r3
    1cee:	d1b2      	bne.n	1c56 <SPI_Configure+0x14>
    1cf0:	2380      	movs	r3, #128	; 0x80
    1cf2:	4a06      	ldr	r2, [pc, #24]	; (1d0c <SPI_Configure+0xca>)
    1cf4:	011b      	lsls	r3, r3, #4
    1cf6:	6815      	ldr	r5, [r2, #0]
    1cf8:	e7ab      	b.n	1c52 <SPI_Configure+0x10>
    1cfa:	4b07      	ldr	r3, [pc, #28]	; (1d18 <SPI_Configure+0xd6>)
    1cfc:	4298      	cmp	r0, r3
    1cfe:	d1f3      	bne.n	1ce8 <SPI_Configure+0xa6>
    1d00:	2280      	movs	r2, #128	; 0x80
    1d02:	4b04      	ldr	r3, [pc, #16]	; (1d14 <SPI_Configure+0xd2>)
    1d04:	0292      	lsls	r2, r2, #10
    1d06:	e7ee      	b.n	1ce6 <SPI_Configure+0xa4>
    1d08:	400b8000 	.word	0x400b8000
    1d0c:	40000008 	.word	0x40000008
    1d10:	ffff7f08 	.word	0xffff7f08
    1d14:	e000e100 	.word	0xe000e100
    1d18:	400b8800 	.word	0x400b8800

00001d1c <SPI0_Init>:
    1d1c:	b530      	push	{r4, r5, lr}
    1d1e:	2508      	movs	r5, #8
    1d20:	4c0e      	ldr	r4, [pc, #56]	; (1d5c <SPI0_Init+0x40>)
    1d22:	2002      	movs	r0, #2
    1d24:	6823      	ldr	r3, [r4, #0]
    1d26:	2201      	movs	r2, #1
    1d28:	43ab      	bics	r3, r5
    1d2a:	6023      	str	r3, [r4, #0]
    1d2c:	2300      	movs	r3, #0
    1d2e:	b085      	sub	sp, #20
    1d30:	a901      	add	r1, sp, #4
    1d32:	7048      	strb	r0, [r1, #1]
    1d34:	0020      	movs	r0, r4
    1d36:	720b      	strb	r3, [r1, #8]
    1d38:	724b      	strb	r3, [r1, #9]
    1d3a:	728b      	strb	r3, [r1, #10]
    1d3c:	72cb      	strb	r3, [r1, #11]
    1d3e:	710b      	strb	r3, [r1, #4]
    1d40:	714b      	strb	r3, [r1, #5]
    1d42:	718b      	strb	r3, [r1, #6]
    1d44:	71cb      	strb	r3, [r1, #7]
    1d46:	700a      	strb	r2, [r1, #0]
    1d48:	708a      	strb	r2, [r1, #2]
    1d4a:	70ca      	strb	r2, [r1, #3]
    1d4c:	f7ff ff79 	bl	1c42 <SPI_Configure>
    1d50:	6823      	ldr	r3, [r4, #0]
    1d52:	431d      	orrs	r5, r3
    1d54:	6025      	str	r5, [r4, #0]
    1d56:	b005      	add	sp, #20
    1d58:	bd30      	pop	{r4, r5, pc}
    1d5a:	46c0      	nop			; (mov r8, r8)
    1d5c:	400b8000 	.word	0x400b8000

00001d60 <SPI_ToggleMasterMode>:
    1d60:	2900      	cmp	r1, #0
    1d62:	d005      	beq.n	1d70 <SPI_ToggleMasterMode+0x10>
    1d64:	2380      	movs	r3, #128	; 0x80
    1d66:	6802      	ldr	r2, [r0, #0]
    1d68:	015b      	lsls	r3, r3, #5
    1d6a:	4313      	orrs	r3, r2
    1d6c:	6003      	str	r3, [r0, #0]
    1d6e:	4770      	bx	lr
    1d70:	6803      	ldr	r3, [r0, #0]
    1d72:	4a01      	ldr	r2, [pc, #4]	; (1d78 <SPI_ToggleMasterMode+0x18>)
    1d74:	4013      	ands	r3, r2
    1d76:	e7f9      	b.n	1d6c <SPI_ToggleMasterMode+0xc>
    1d78:	ffffefff 	.word	0xffffefff

00001d7c <SPI_Enable>:
    1d7c:	2308      	movs	r3, #8
    1d7e:	6802      	ldr	r2, [r0, #0]
    1d80:	4313      	orrs	r3, r2
    1d82:	6003      	str	r3, [r0, #0]
    1d84:	4770      	bx	lr
    1d86:	46c0      	nop			; (mov r8, r8)

00001d88 <ST7565_Configure_GPIO_B11>:
    1d88:	b510      	push	{r4, lr}
    1d8a:	4c0b      	ldr	r4, [pc, #44]	; (1db8 <ST7565_Configure_GPIO_B11+0x30>)
    1d8c:	210b      	movs	r1, #11
    1d8e:	0020      	movs	r0, r4
    1d90:	f7ff fd86 	bl	18a0 <GPIO_SetBit>
    1d94:	2001      	movs	r0, #1
    1d96:	f000 f95f 	bl	2058 <SYSTEM_DelayMs>
    1d9a:	210b      	movs	r1, #11
    1d9c:	0020      	movs	r0, r4
    1d9e:	f7ff fd6e 	bl	187e <GPIO_ClearBit>
    1da2:	2014      	movs	r0, #20
    1da4:	f000 f958 	bl	2058 <SYSTEM_DelayMs>
    1da8:	210b      	movs	r1, #11
    1daa:	0020      	movs	r0, r4
    1dac:	f7ff fd78 	bl	18a0 <GPIO_SetBit>
    1db0:	2078      	movs	r0, #120	; 0x78
    1db2:	f000 f951 	bl	2058 <SYSTEM_DelayMs>
    1db6:	bd10      	pop	{r4, pc}
    1db8:	40060800 	.word	0x40060800

00001dbc <ST7565_SelectColumnAndLine>:
    1dbc:	b570      	push	{r4, r5, r6, lr}
    1dbe:	0004      	movs	r4, r0
    1dc0:	000d      	movs	r5, r1
    1dc2:	480e      	ldr	r0, [pc, #56]	; (1dfc <ST7565_SelectColumnAndLine+0x40>)
    1dc4:	2109      	movs	r1, #9
    1dc6:	f7ff fd5a 	bl	187e <GPIO_ClearBit>
    1dca:	2210      	movs	r2, #16
    1dcc:	4b0c      	ldr	r3, [pc, #48]	; (1e00 <ST7565_SelectColumnAndLine+0x44>)
    1dce:	6999      	ldr	r1, [r3, #24]
    1dd0:	4211      	tst	r1, r2
    1dd2:	d1fc      	bne.n	1dce <ST7565_SelectColumnAndLine+0x12>
    1dd4:	2210      	movs	r2, #16
    1dd6:	35b0      	adds	r5, #176	; 0xb0
    1dd8:	605d      	str	r5, [r3, #4]
    1dda:	6999      	ldr	r1, [r3, #24]
    1ddc:	4211      	tst	r1, r2
    1dde:	d1fc      	bne.n	1dda <ST7565_SelectColumnAndLine+0x1e>
    1de0:	0921      	lsrs	r1, r4, #4
    1de2:	430a      	orrs	r2, r1
    1de4:	605a      	str	r2, [r3, #4]
    1de6:	2210      	movs	r2, #16
    1de8:	6999      	ldr	r1, [r3, #24]
    1dea:	4211      	tst	r1, r2
    1dec:	d1fc      	bne.n	1de8 <ST7565_SelectColumnAndLine+0x2c>
    1dee:	200f      	movs	r0, #15
    1df0:	4004      	ands	r4, r0
    1df2:	605c      	str	r4, [r3, #4]
    1df4:	f7ff ff12 	bl	1c1c <SPI_WaitForUndocumentedTxFifoStatusBit>
    1df8:	bd70      	pop	{r4, r5, r6, pc}
    1dfa:	46c0      	nop			; (mov r8, r8)
    1dfc:	40060800 	.word	0x40060800
    1e00:	400b8000 	.word	0x400b8000

00001e04 <ST7565_DrawLine>:
    1e04:	b5f7      	push	{r0, r1, r2, r4, r5, r6, r7, lr}
    1e06:	0005      	movs	r5, r0
    1e08:	000f      	movs	r7, r1
    1e0a:	481b      	ldr	r0, [pc, #108]	; (1e78 <ST7565_DrawLine+0x74>)
    1e0c:	2100      	movs	r1, #0
    1e0e:	9301      	str	r3, [sp, #4]
    1e10:	ab08      	add	r3, sp, #32
    1e12:	781c      	ldrb	r4, [r3, #0]
    1e14:	0016      	movs	r6, r2
    1e16:	f7ff ffa3 	bl	1d60 <SPI_ToggleMasterMode>
    1e1a:	1d28      	adds	r0, r5, #4
    1e1c:	0039      	movs	r1, r7
    1e1e:	b2c0      	uxtb	r0, r0
    1e20:	f7ff ffcc 	bl	1dbc <ST7565_SelectColumnAndLine>
    1e24:	2109      	movs	r1, #9
    1e26:	4815      	ldr	r0, [pc, #84]	; (1e7c <ST7565_DrawLine+0x78>)
    1e28:	f7ff fd3a 	bl	18a0 <GPIO_SetBit>
    1e2c:	2c00      	cmp	r4, #0
    1e2e:	d11e      	bne.n	1e6e <ST7565_DrawLine+0x6a>
    1e30:	2110      	movs	r1, #16
    1e32:	4b11      	ldr	r3, [pc, #68]	; (1e78 <ST7565_DrawLine+0x74>)
    1e34:	b2a2      	uxth	r2, r4
    1e36:	4296      	cmp	r6, r2
    1e38:	d806      	bhi.n	1e48 <ST7565_DrawLine+0x44>
    1e3a:	f7ff feef 	bl	1c1c <SPI_WaitForUndocumentedTxFifoStatusBit>
    1e3e:	2101      	movs	r1, #1
    1e40:	480d      	ldr	r0, [pc, #52]	; (1e78 <ST7565_DrawLine+0x74>)
    1e42:	f7ff ff8d 	bl	1d60 <SPI_ToggleMasterMode>
    1e46:	bdf7      	pop	{r0, r1, r2, r4, r5, r6, r7, pc}
    1e48:	699a      	ldr	r2, [r3, #24]
    1e4a:	420a      	tst	r2, r1
    1e4c:	d1fc      	bne.n	1e48 <ST7565_DrawLine+0x44>
    1e4e:	9a01      	ldr	r2, [sp, #4]
    1e50:	5d12      	ldrb	r2, [r2, r4]
    1e52:	3401      	adds	r4, #1
    1e54:	605a      	str	r2, [r3, #4]
    1e56:	e7ed      	b.n	1e34 <ST7565_DrawLine+0x30>
    1e58:	6990      	ldr	r0, [r2, #24]
    1e5a:	0004      	movs	r4, r0
    1e5c:	400c      	ands	r4, r1
    1e5e:	4208      	tst	r0, r1
    1e60:	d1fa      	bne.n	1e58 <ST7565_DrawLine+0x54>
    1e62:	3301      	adds	r3, #1
    1e64:	6054      	str	r4, [r2, #4]
    1e66:	b29b      	uxth	r3, r3
    1e68:	42b3      	cmp	r3, r6
    1e6a:	d1f5      	bne.n	1e58 <ST7565_DrawLine+0x54>
    1e6c:	e7e5      	b.n	1e3a <ST7565_DrawLine+0x36>
    1e6e:	2300      	movs	r3, #0
    1e70:	2110      	movs	r1, #16
    1e72:	4a01      	ldr	r2, [pc, #4]	; (1e78 <ST7565_DrawLine+0x74>)
    1e74:	e7f8      	b.n	1e68 <ST7565_DrawLine+0x64>
    1e76:	46c0      	nop			; (mov r8, r8)
    1e78:	400b8000 	.word	0x400b8000
    1e7c:	40060800 	.word	0x40060800

00001e80 <ST7565_FillScreen>:
    1e80:	b570      	push	{r4, r5, r6, lr}
    1e82:	2100      	movs	r1, #0
    1e84:	0005      	movs	r5, r0
    1e86:	4811      	ldr	r0, [pc, #68]	; (1ecc <ST7565_FillScreen+0x4c>)
    1e88:	f7ff ff6a 	bl	1d60 <SPI_ToggleMasterMode>
    1e8c:	2400      	movs	r4, #0
    1e8e:	2684      	movs	r6, #132	; 0x84
    1e90:	0021      	movs	r1, r4
    1e92:	2000      	movs	r0, #0
    1e94:	f7ff ff92 	bl	1dbc <ST7565_SelectColumnAndLine>
    1e98:	2109      	movs	r1, #9
    1e9a:	480d      	ldr	r0, [pc, #52]	; (1ed0 <ST7565_FillScreen+0x50>)
    1e9c:	f7ff fd00 	bl	18a0 <GPIO_SetBit>
    1ea0:	0033      	movs	r3, r6
    1ea2:	2110      	movs	r1, #16
    1ea4:	4a09      	ldr	r2, [pc, #36]	; (1ecc <ST7565_FillScreen+0x4c>)
    1ea6:	6990      	ldr	r0, [r2, #24]
    1ea8:	4208      	tst	r0, r1
    1eaa:	d1fc      	bne.n	1ea6 <ST7565_FillScreen+0x26>
    1eac:	3b01      	subs	r3, #1
    1eae:	b2db      	uxtb	r3, r3
    1eb0:	6055      	str	r5, [r2, #4]
    1eb2:	2b00      	cmp	r3, #0
    1eb4:	d1f7      	bne.n	1ea6 <ST7565_FillScreen+0x26>
    1eb6:	3401      	adds	r4, #1
    1eb8:	b2e4      	uxtb	r4, r4
    1eba:	f7ff feaf 	bl	1c1c <SPI_WaitForUndocumentedTxFifoStatusBit>
    1ebe:	2c08      	cmp	r4, #8
    1ec0:	d1e6      	bne.n	1e90 <ST7565_FillScreen+0x10>
    1ec2:	2101      	movs	r1, #1
    1ec4:	4801      	ldr	r0, [pc, #4]	; (1ecc <ST7565_FillScreen+0x4c>)
    1ec6:	f7ff ff4b 	bl	1d60 <SPI_ToggleMasterMode>
    1eca:	bd70      	pop	{r4, r5, r6, pc}
    1ecc:	400b8000 	.word	0x400b8000
    1ed0:	40060800 	.word	0x40060800

00001ed4 <ST7565_WriteByte>:
    1ed4:	b510      	push	{r4, lr}
    1ed6:	2109      	movs	r1, #9
    1ed8:	0004      	movs	r4, r0
    1eda:	4805      	ldr	r0, [pc, #20]	; (1ef0 <ST7565_WriteByte+0x1c>)
    1edc:	f7ff fccf 	bl	187e <GPIO_ClearBit>
    1ee0:	2210      	movs	r2, #16
    1ee2:	4b04      	ldr	r3, [pc, #16]	; (1ef4 <ST7565_WriteByte+0x20>)
    1ee4:	6999      	ldr	r1, [r3, #24]
    1ee6:	4211      	tst	r1, r2
    1ee8:	d1fc      	bne.n	1ee4 <ST7565_WriteByte+0x10>
    1eea:	605c      	str	r4, [r3, #4]
    1eec:	bd10      	pop	{r4, pc}
    1eee:	46c0      	nop			; (mov r8, r8)
    1ef0:	40060800 	.word	0x40060800
    1ef4:	400b8000 	.word	0x400b8000

00001ef8 <ST7565_BlitFullScreen>:
    1ef8:	b570      	push	{r4, r5, r6, lr}
    1efa:	2400      	movs	r4, #0
    1efc:	2610      	movs	r6, #16
    1efe:	2100      	movs	r1, #0
    1f00:	4812      	ldr	r0, [pc, #72]	; (1f4c <ST7565_BlitFullScreen+0x54>)
    1f02:	f7ff ff2d 	bl	1d60 <SPI_ToggleMasterMode>
    1f06:	2040      	movs	r0, #64	; 0x40
    1f08:	f7ff ffe4 	bl	1ed4 <ST7565_WriteByte>
    1f0c:	4d10      	ldr	r5, [pc, #64]	; (1f50 <ST7565_BlitFullScreen+0x58>)
    1f0e:	3401      	adds	r4, #1
    1f10:	b2e4      	uxtb	r4, r4
    1f12:	0021      	movs	r1, r4
    1f14:	2004      	movs	r0, #4
    1f16:	f7ff ff51 	bl	1dbc <ST7565_SelectColumnAndLine>
    1f1a:	2109      	movs	r1, #9
    1f1c:	480d      	ldr	r0, [pc, #52]	; (1f54 <ST7565_BlitFullScreen+0x5c>)
    1f1e:	f7ff fcbf 	bl	18a0 <GPIO_SetBit>
    1f22:	2300      	movs	r3, #0
    1f24:	4a09      	ldr	r2, [pc, #36]	; (1f4c <ST7565_BlitFullScreen+0x54>)
    1f26:	6991      	ldr	r1, [r2, #24]
    1f28:	4231      	tst	r1, r6
    1f2a:	d1fc      	bne.n	1f26 <ST7565_BlitFullScreen+0x2e>
    1f2c:	5ce9      	ldrb	r1, [r5, r3]
    1f2e:	3301      	adds	r3, #1
    1f30:	6051      	str	r1, [r2, #4]
    1f32:	2b80      	cmp	r3, #128	; 0x80
    1f34:	d1f7      	bne.n	1f26 <ST7565_BlitFullScreen+0x2e>
    1f36:	f7ff fe71 	bl	1c1c <SPI_WaitForUndocumentedTxFifoStatusBit>
    1f3a:	3580      	adds	r5, #128	; 0x80
    1f3c:	2c07      	cmp	r4, #7
    1f3e:	d1e6      	bne.n	1f0e <ST7565_BlitFullScreen+0x16>
    1f40:	2101      	movs	r1, #1
    1f42:	4802      	ldr	r0, [pc, #8]	; (1f4c <ST7565_BlitFullScreen+0x54>)
    1f44:	f7ff ff0c 	bl	1d60 <SPI_ToggleMasterMode>
    1f48:	bd70      	pop	{r4, r5, r6, pc}
    1f4a:	46c0      	nop			; (mov r8, r8)
    1f4c:	400b8000 	.word	0x400b8000
    1f50:	20000646 	.word	0x20000646
    1f54:	40060800 	.word	0x40060800

00001f58 <ST7565_BlitStatusLine>:
    1f58:	b510      	push	{r4, lr}
    1f5a:	2100      	movs	r1, #0
    1f5c:	4810      	ldr	r0, [pc, #64]	; (1fa0 <ST7565_BlitStatusLine+0x48>)
    1f5e:	f7ff feff 	bl	1d60 <SPI_ToggleMasterMode>
    1f62:	2040      	movs	r0, #64	; 0x40
    1f64:	f7ff ffb6 	bl	1ed4 <ST7565_WriteByte>
    1f68:	2100      	movs	r1, #0
    1f6a:	2004      	movs	r0, #4
    1f6c:	f7ff ff26 	bl	1dbc <ST7565_SelectColumnAndLine>
    1f70:	480c      	ldr	r0, [pc, #48]	; (1fa4 <ST7565_BlitStatusLine+0x4c>)
    1f72:	2109      	movs	r1, #9
    1f74:	f7ff fc94 	bl	18a0 <GPIO_SetBit>
    1f78:	2410      	movs	r4, #16
    1f7a:	2300      	movs	r3, #0
    1f7c:	4a08      	ldr	r2, [pc, #32]	; (1fa0 <ST7565_BlitStatusLine+0x48>)
    1f7e:	480a      	ldr	r0, [pc, #40]	; (1fa8 <ST7565_BlitStatusLine+0x50>)
    1f80:	6991      	ldr	r1, [r2, #24]
    1f82:	4221      	tst	r1, r4
    1f84:	d1fc      	bne.n	1f80 <ST7565_BlitStatusLine+0x28>
    1f86:	5cc1      	ldrb	r1, [r0, r3]
    1f88:	3301      	adds	r3, #1
    1f8a:	6051      	str	r1, [r2, #4]
    1f8c:	2b80      	cmp	r3, #128	; 0x80
    1f8e:	d1f7      	bne.n	1f80 <ST7565_BlitStatusLine+0x28>
    1f90:	f7ff fe44 	bl	1c1c <SPI_WaitForUndocumentedTxFifoStatusBit>
    1f94:	2101      	movs	r1, #1
    1f96:	4802      	ldr	r0, [pc, #8]	; (1fa0 <ST7565_BlitStatusLine+0x48>)
    1f98:	f7ff fee2 	bl	1d60 <SPI_ToggleMasterMode>
    1f9c:	bd10      	pop	{r4, pc}
    1f9e:	46c0      	nop			; (mov r8, r8)
    1fa0:	400b8000 	.word	0x400b8000
    1fa4:	40060800 	.word	0x40060800
    1fa8:	200009c6 	.word	0x200009c6

00001fac <ST7565_Init>:
    1fac:	b510      	push	{r4, lr}
    1fae:	4c29      	ldr	r4, [pc, #164]	; (2054 <ST7565_Init+0xa8>)
    1fb0:	f7ff feb4 	bl	1d1c <SPI0_Init>
    1fb4:	f7ff fee8 	bl	1d88 <ST7565_Configure_GPIO_B11>
    1fb8:	2100      	movs	r1, #0
    1fba:	0020      	movs	r0, r4
    1fbc:	f7ff fed0 	bl	1d60 <SPI_ToggleMasterMode>
    1fc0:	20e2      	movs	r0, #226	; 0xe2
    1fc2:	f7ff ff87 	bl	1ed4 <ST7565_WriteByte>
    1fc6:	2078      	movs	r0, #120	; 0x78
    1fc8:	f000 f846 	bl	2058 <SYSTEM_DelayMs>
    1fcc:	20a2      	movs	r0, #162	; 0xa2
    1fce:	f7ff ff81 	bl	1ed4 <ST7565_WriteByte>
    1fd2:	20c0      	movs	r0, #192	; 0xc0
    1fd4:	f7ff ff7e 	bl	1ed4 <ST7565_WriteByte>
    1fd8:	20a1      	movs	r0, #161	; 0xa1
    1fda:	f7ff ff7b 	bl	1ed4 <ST7565_WriteByte>
    1fde:	20a6      	movs	r0, #166	; 0xa6
    1fe0:	f7ff ff78 	bl	1ed4 <ST7565_WriteByte>
    1fe4:	20a4      	movs	r0, #164	; 0xa4
    1fe6:	f7ff ff75 	bl	1ed4 <ST7565_WriteByte>
    1fea:	2024      	movs	r0, #36	; 0x24
    1fec:	f7ff ff72 	bl	1ed4 <ST7565_WriteByte>
    1ff0:	2081      	movs	r0, #129	; 0x81
    1ff2:	f7ff ff6f 	bl	1ed4 <ST7565_WriteByte>
    1ff6:	201f      	movs	r0, #31
    1ff8:	f7ff ff6c 	bl	1ed4 <ST7565_WriteByte>
    1ffc:	202b      	movs	r0, #43	; 0x2b
    1ffe:	f7ff ff69 	bl	1ed4 <ST7565_WriteByte>
    2002:	2001      	movs	r0, #1
    2004:	f000 f828 	bl	2058 <SYSTEM_DelayMs>
    2008:	202e      	movs	r0, #46	; 0x2e
    200a:	f7ff ff63 	bl	1ed4 <ST7565_WriteByte>
    200e:	2001      	movs	r0, #1
    2010:	f000 f822 	bl	2058 <SYSTEM_DelayMs>
    2014:	202f      	movs	r0, #47	; 0x2f
    2016:	f7ff ff5d 	bl	1ed4 <ST7565_WriteByte>
    201a:	202f      	movs	r0, #47	; 0x2f
    201c:	f7ff ff5a 	bl	1ed4 <ST7565_WriteByte>
    2020:	202f      	movs	r0, #47	; 0x2f
    2022:	f7ff ff57 	bl	1ed4 <ST7565_WriteByte>
    2026:	202f      	movs	r0, #47	; 0x2f
    2028:	f7ff ff54 	bl	1ed4 <ST7565_WriteByte>
    202c:	2028      	movs	r0, #40	; 0x28
    202e:	f000 f813 	bl	2058 <SYSTEM_DelayMs>
    2032:	2040      	movs	r0, #64	; 0x40
    2034:	f7ff ff4e 	bl	1ed4 <ST7565_WriteByte>
    2038:	20af      	movs	r0, #175	; 0xaf
    203a:	f7ff ff4b 	bl	1ed4 <ST7565_WriteByte>
    203e:	f7ff fded 	bl	1c1c <SPI_WaitForUndocumentedTxFifoStatusBit>
    2042:	2101      	movs	r1, #1
    2044:	0020      	movs	r0, r4
    2046:	f7ff fe8b 	bl	1d60 <SPI_ToggleMasterMode>
    204a:	2000      	movs	r0, #0
    204c:	f7ff ff18 	bl	1e80 <ST7565_FillScreen>
    2050:	bd10      	pop	{r4, pc}
    2052:	46c0      	nop			; (mov r8, r8)
    2054:	400b8000 	.word	0x400b8000

00002058 <SYSTEM_DelayMs>:
    2058:	23fa      	movs	r3, #250	; 0xfa
    205a:	b510      	push	{r4, lr}
    205c:	009b      	lsls	r3, r3, #2
    205e:	4358      	muls	r0, r3
    2060:	f000 f832 	bl	20c8 <SYSTICK_DelayUs>
    2064:	bd10      	pop	{r4, pc}

00002066 <SYSTEM_ConfigureClocks>:
    2066:	2103      	movs	r1, #3
    2068:	4a07      	ldr	r2, [pc, #28]	; (2088 <SYSTEM_ConfigureClocks+0x22>)
    206a:	6813      	ldr	r3, [r2, #0]
    206c:	438b      	bics	r3, r1
    206e:	3902      	subs	r1, #2
    2070:	430b      	orrs	r3, r1
    2072:	6013      	str	r3, [r2, #0]
    2074:	2380      	movs	r3, #128	; 0x80
    2076:	2202      	movs	r2, #2
    2078:	05db      	lsls	r3, r3, #23
    207a:	601a      	str	r2, [r3, #0]
    207c:	4a03      	ldr	r2, [pc, #12]	; (208c <SYSTEM_ConfigureClocks+0x26>)
    207e:	6813      	ldr	r3, [r2, #0]
    2080:	438b      	bics	r3, r1
    2082:	6013      	str	r3, [r2, #0]
    2084:	4770      	bx	lr
    2086:	46c0      	nop			; (mov r8, r8)
    2088:	40000810 	.word	0x40000810
    208c:	40000004 	.word	0x40000004

00002090 <SYSTICK_Init>:
    2090:	21c0      	movs	r1, #192	; 0xc0
    2092:	4a09      	ldr	r2, [pc, #36]	; (20b8 <SYSTICK_Init+0x28>)
    2094:	4b09      	ldr	r3, [pc, #36]	; (20bc <SYSTICK_Init+0x2c>)
    2096:	480a      	ldr	r0, [pc, #40]	; (20c0 <SYSTICK_Init+0x30>)
    2098:	6053      	str	r3, [r2, #4]
    209a:	6a03      	ldr	r3, [r0, #32]
    209c:	0609      	lsls	r1, r1, #24
    209e:	021b      	lsls	r3, r3, #8
    20a0:	0a1b      	lsrs	r3, r3, #8
    20a2:	430b      	orrs	r3, r1
    20a4:	6203      	str	r3, [r0, #32]
    20a6:	2300      	movs	r3, #0
    20a8:	6093      	str	r3, [r2, #8]
    20aa:	3307      	adds	r3, #7
    20ac:	6013      	str	r3, [r2, #0]
    20ae:	2230      	movs	r2, #48	; 0x30
    20b0:	4b04      	ldr	r3, [pc, #16]	; (20c4 <SYSTICK_Init+0x34>)
    20b2:	601a      	str	r2, [r3, #0]
    20b4:	4770      	bx	lr
    20b6:	46c0      	nop			; (mov r8, r8)
    20b8:	e000e010 	.word	0xe000e010
    20bc:	000752ff 	.word	0x000752ff
    20c0:	e000ed00 	.word	0xe000ed00
    20c4:	20000a48 	.word	0x20000a48

000020c8 <SYSTICK_DelayUs>:
    20c8:	2100      	movs	r1, #0
    20ca:	4a0a      	ldr	r2, [pc, #40]	; (20f4 <SYSTICK_DelayUs+0x2c>)
    20cc:	b570      	push	{r4, r5, r6, lr}
    20ce:	6812      	ldr	r2, [r2, #0]
    20d0:	4c09      	ldr	r4, [pc, #36]	; (20f8 <SYSTICK_DelayUs+0x30>)
    20d2:	4350      	muls	r0, r2
    20d4:	6866      	ldr	r6, [r4, #4]
    20d6:	68a3      	ldr	r3, [r4, #8]
    20d8:	68a2      	ldr	r2, [r4, #8]
    20da:	4293      	cmp	r3, r2
    20dc:	d0fc      	beq.n	20d8 <SYSTICK_DelayUs+0x10>
    20de:	1ab5      	subs	r5, r6, r2
    20e0:	4293      	cmp	r3, r2
    20e2:	d900      	bls.n	20e6 <SYSTICK_DelayUs+0x1e>
    20e4:	4255      	negs	r5, r2
    20e6:	195b      	adds	r3, r3, r5
    20e8:	18c9      	adds	r1, r1, r3
    20ea:	4288      	cmp	r0, r1
    20ec:	d800      	bhi.n	20f0 <SYSTICK_DelayUs+0x28>
    20ee:	bd70      	pop	{r4, r5, r6, pc}
    20f0:	0013      	movs	r3, r2
    20f2:	e7f1      	b.n	20d8 <SYSTICK_DelayUs+0x10>
    20f4:	20000a48 	.word	0x20000a48
    20f8:	e000e010 	.word	0xe000e010

000020fc <ACTION_Power>:
    20fc:	4b09      	ldr	r3, [pc, #36]	; (2124 <ACTION_Power+0x28>)
    20fe:	681a      	ldr	r2, [r3, #0]
    2100:	3208      	adds	r2, #8
    2102:	7fd3      	ldrb	r3, [r2, #31]
    2104:	3301      	adds	r3, #1
    2106:	b2db      	uxtb	r3, r3
    2108:	2b02      	cmp	r3, #2
    210a:	d808      	bhi.n	211e <ACTION_Power+0x22>
    210c:	77d3      	strb	r3, [r2, #31]
    210e:	2201      	movs	r2, #1
    2110:	4b05      	ldr	r3, [pc, #20]	; (2128 <ACTION_Power+0x2c>)
    2112:	701a      	strb	r2, [r3, #0]
    2114:	4b05      	ldr	r3, [pc, #20]	; (212c <ACTION_Power+0x30>)
    2116:	781a      	ldrb	r2, [r3, #0]
    2118:	4b05      	ldr	r3, [pc, #20]	; (2130 <ACTION_Power+0x34>)
    211a:	701a      	strb	r2, [r3, #0]
    211c:	4770      	bx	lr
    211e:	2300      	movs	r3, #0
    2120:	e7f4      	b.n	210c <ACTION_Power+0x10>
    2122:	46c0      	nop			; (mov r8, r8)
    2124:	200011e0 	.word	0x200011e0
    2128:	20001078 	.word	0x20001078
    212c:	20001325 	.word	0x20001325
    2130:	20000639 	.word	0x20000639

00002134 <ACTION_Scan>:
    2134:	4770      	bx	lr

00002136 <ACTION_Vox>:
    2136:	2301      	movs	r3, #1
    2138:	4905      	ldr	r1, [pc, #20]	; (2150 <ACTION_Vox+0x1a>)
    213a:	7cca      	ldrb	r2, [r1, #19]
    213c:	405a      	eors	r2, r3
    213e:	74ca      	strb	r2, [r1, #19]
    2140:	4a04      	ldr	r2, [pc, #16]	; (2154 <ACTION_Vox+0x1e>)
    2142:	7013      	strb	r3, [r2, #0]
    2144:	4a04      	ldr	r2, [pc, #16]	; (2158 <ACTION_Vox+0x22>)
    2146:	7013      	strb	r3, [r2, #0]
    2148:	4a04      	ldr	r2, [pc, #16]	; (215c <ACTION_Vox+0x26>)
    214a:	7013      	strb	r3, [r2, #0]
    214c:	4770      	bx	lr
    214e:	46c0      	nop			; (mov r8, r8)
    2150:	200011f0 	.word	0x200011f0
    2154:	20001077 	.word	0x20001077
    2158:	2000107c 	.word	0x2000107c
    215c:	2000108a 	.word	0x2000108a

00002160 <ACTION_Handle>:
    2160:	b5f8      	push	{r3, r4, r5, r6, r7, lr}
    2162:	4c41      	ldr	r4, [pc, #260]	; (2268 <ACTION_Handle+0x108>)
    2164:	7823      	ldrb	r3, [r4, #0]
    2166:	2b00      	cmp	r3, #0
    2168:	d123      	bne.n	21b2 <ACTION_Handle+0x52>
    216a:	4d40      	ldr	r5, [pc, #256]	; (226c <ACTION_Handle+0x10c>)
    216c:	782b      	ldrb	r3, [r5, #0]
    216e:	2b00      	cmp	r3, #0
    2170:	d01f      	beq.n	21b2 <ACTION_Handle+0x52>
    2172:	4c3f      	ldr	r4, [pc, #252]	; (2270 <ACTION_Handle+0x110>)
    2174:	2817      	cmp	r0, #23
    2176:	d119      	bne.n	21ac <ACTION_Handle+0x4c>
    2178:	2a00      	cmp	r2, #0
    217a:	d117      	bne.n	21ac <ACTION_Handle+0x4c>
    217c:	2900      	cmp	r1, #0
    217e:	d015      	beq.n	21ac <ACTION_Handle+0x4c>
    2180:	4b3c      	ldr	r3, [pc, #240]	; (2274 <ACTION_Handle+0x114>)
    2182:	4e3d      	ldr	r6, [pc, #244]	; (2278 <ACTION_Handle+0x118>)
    2184:	3816      	subs	r0, #22
    2186:	7018      	strb	r0, [r3, #0]
    2188:	7833      	ldrb	r3, [r6, #0]
    218a:	493c      	ldr	r1, [pc, #240]	; (227c <ACTION_Handle+0x11c>)
    218c:	2b00      	cmp	r3, #0
    218e:	d00a      	beq.n	21a6 <ACTION_Handle+0x46>
    2190:	272d      	movs	r7, #45	; 0x2d
    2192:	3b01      	subs	r3, #1
    2194:	b2db      	uxtb	r3, r3
    2196:	7033      	strb	r3, [r6, #0]
    2198:	4e39      	ldr	r6, [pc, #228]	; (2280 <ACTION_Handle+0x120>)
    219a:	54f7      	strb	r7, [r6, r3]
    219c:	2b00      	cmp	r3, #0
    219e:	d002      	beq.n	21a6 <ACTION_Handle+0x46>
    21a0:	7020      	strb	r0, [r4, #0]
    21a2:	700a      	strb	r2, [r1, #0]
    21a4:	bdf8      	pop	{r3, r4, r5, r6, r7, pc}
    21a6:	2300      	movs	r3, #0
    21a8:	700b      	strb	r3, [r1, #0]
    21aa:	702b      	strb	r3, [r5, #0]
    21ac:	2301      	movs	r3, #1
    21ae:	7023      	strb	r3, [r4, #0]
    21b0:	e7f8      	b.n	21a4 <ACTION_Handle+0x44>
    21b2:	4b34      	ldr	r3, [pc, #208]	; (2284 <ACTION_Handle+0x124>)
    21b4:	2817      	cmp	r0, #23
    21b6:	d10c      	bne.n	21d2 <ACTION_Handle+0x72>
    21b8:	0018      	movs	r0, r3
    21ba:	303d      	adds	r0, #61	; 0x3d
    21bc:	7800      	ldrb	r0, [r0, #0]
    21be:	333e      	adds	r3, #62	; 0x3e
    21c0:	781b      	ldrb	r3, [r3, #0]
    21c2:	2a00      	cmp	r2, #0
    21c4:	d144      	bne.n	2250 <ACTION_Handle+0xf0>
    21c6:	2900      	cmp	r1, #0
    21c8:	d045      	beq.n	2256 <ACTION_Handle+0xf6>
    21ca:	4b2a      	ldr	r3, [pc, #168]	; (2274 <ACTION_Handle+0x114>)
    21cc:	3201      	adds	r2, #1
    21ce:	701a      	strb	r2, [r3, #0]
    21d0:	e7e8      	b.n	21a4 <ACTION_Handle+0x44>
    21d2:	0018      	movs	r0, r3
    21d4:	303f      	adds	r0, #63	; 0x3f
    21d6:	7800      	ldrb	r0, [r0, #0]
    21d8:	3340      	adds	r3, #64	; 0x40
    21da:	e7f1      	b.n	21c0 <ACTION_Handle+0x60>
    21dc:	4b2a      	ldr	r3, [pc, #168]	; (2288 <ACTION_Handle+0x128>)
    21de:	781a      	ldrb	r2, [r3, #0]
    21e0:	2a00      	cmp	r2, #0
    21e2:	d106      	bne.n	21f2 <ACTION_Handle+0x92>
    21e4:	3201      	adds	r2, #1
    21e6:	2103      	movs	r1, #3
    21e8:	4828      	ldr	r0, [pc, #160]	; (228c <ACTION_Handle+0x12c>)
    21ea:	701a      	strb	r2, [r3, #0]
    21ec:	f7ff fb58 	bl	18a0 <GPIO_SetBit>
    21f0:	e7d8      	b.n	21a4 <ACTION_Handle+0x44>
    21f2:	2200      	movs	r2, #0
    21f4:	2103      	movs	r1, #3
    21f6:	4825      	ldr	r0, [pc, #148]	; (228c <ACTION_Handle+0x12c>)
    21f8:	701a      	strb	r2, [r3, #0]
    21fa:	f7ff fb40 	bl	187e <GPIO_ClearBit>
    21fe:	e7d1      	b.n	21a4 <ACTION_Handle+0x44>
    2200:	f7ff ff7c 	bl	20fc <ACTION_Power>
    2204:	e7ce      	b.n	21a4 <ACTION_Handle+0x44>
    2206:	4b22      	ldr	r3, [pc, #136]	; (2290 <ACTION_Handle+0x130>)
    2208:	781b      	ldrb	r3, [r3, #0]
    220a:	2b02      	cmp	r3, #2
    220c:	d009      	beq.n	2222 <ACTION_Handle+0xc2>
    220e:	f006 ff98 	bl	9142 <RADIO_SelectVfos>
    2212:	2001      	movs	r0, #1
    2214:	f006 ffc4 	bl	91a0 <RADIO_SetupRegisters>
    2218:	2100      	movs	r1, #0
    221a:	2002      	movs	r0, #2
    221c:	f000 fba0 	bl	2960 <APP_StartListening>
    2220:	e7c0      	b.n	21a4 <ACTION_Handle+0x44>
    2222:	4b1c      	ldr	r3, [pc, #112]	; (2294 <ACTION_Handle+0x134>)
    2224:	781b      	ldrb	r3, [r3, #0]
    2226:	2b00      	cmp	r3, #0
    2228:	d009      	beq.n	223e <ACTION_Handle+0xde>
    222a:	22fa      	movs	r2, #250	; 0xfa
    222c:	4b1a      	ldr	r3, [pc, #104]	; (2298 <ACTION_Handle+0x138>)
    222e:	0052      	lsls	r2, r2, #1
    2230:	801a      	strh	r2, [r3, #0]
    2232:	2200      	movs	r2, #0
    2234:	4b19      	ldr	r3, [pc, #100]	; (229c <ACTION_Handle+0x13c>)
    2236:	701a      	strb	r2, [r3, #0]
    2238:	4b19      	ldr	r3, [pc, #100]	; (22a0 <ACTION_Handle+0x140>)
    223a:	3201      	adds	r2, #1
    223c:	701a      	strb	r2, [r3, #0]
    223e:	2001      	movs	r0, #1
    2240:	f006 ffae 	bl	91a0 <RADIO_SetupRegisters>
    2244:	7822      	ldrb	r2, [r4, #0]
    2246:	4b0d      	ldr	r3, [pc, #52]	; (227c <ACTION_Handle+0x11c>)
    2248:	e7c1      	b.n	21ce <ACTION_Handle+0x6e>
    224a:	f7ff ff74 	bl	2136 <ACTION_Vox>
    224e:	e7a9      	b.n	21a4 <ACTION_Handle+0x44>
    2250:	0018      	movs	r0, r3
    2252:	2900      	cmp	r1, #0
    2254:	d0a6      	beq.n	21a4 <ACTION_Handle+0x44>
    2256:	3801      	subs	r0, #1
    2258:	2804      	cmp	r0, #4
    225a:	d8a3      	bhi.n	21a4 <ACTION_Handle+0x44>
    225c:	f009 fb22 	bl	b8a4 <__gnu_thumb1_case_sqi>
    2260:	a2d3d0be 	.word	0xa2d3d0be
    2264:	f5          	.byte	0xf5
    2265:	00          	.byte	0x00
    2266:	46c0      	nop			; (mov r8, r8)
    2268:	20001325 	.word	0x20001325
    226c:	20000a8e 	.word	0x20000a8e
    2270:	2000107f 	.word	0x2000107f
    2274:	20001010 	.word	0x20001010
    2278:	20000a4d 	.word	0x20000a4d
    227c:	20000639 	.word	0x20000639
    2280:	20000a4e 	.word	0x20000a4e
    2284:	200011f0 	.word	0x200011f0
    2288:	20001069 	.word	0x20001069
    228c:	40061000 	.word	0x40061000
    2290:	20001011 	.word	0x20001011
    2294:	20000ab7 	.word	0x20000ab7
    2298:	20000aba 	.word	0x20000aba
    229c:	2000000d 	.word	0x2000000d
    22a0:	20000abc 	.word	0x20000abc

000022a4 <DUALWATCH_Alternate>:
    22a4:	b510      	push	{r4, lr}
    22a6:	4909      	ldr	r1, [pc, #36]	; (22cc <DUALWATCH_Alternate+0x28>)
    22a8:	2000      	movs	r0, #0
    22aa:	7a0a      	ldrb	r2, [r1, #8]
    22ac:	4253      	negs	r3, r2
    22ae:	415a      	adcs	r2, r3
    22b0:	2344      	movs	r3, #68	; 0x44
    22b2:	b2d2      	uxtb	r2, r2
    22b4:	4353      	muls	r3, r2
    22b6:	720a      	strb	r2, [r1, #8]
    22b8:	3398      	adds	r3, #152	; 0x98
    22ba:	4a05      	ldr	r2, [pc, #20]	; (22d0 <DUALWATCH_Alternate+0x2c>)
    22bc:	185b      	adds	r3, r3, r1
    22be:	6013      	str	r3, [r2, #0]
    22c0:	f006 ff6e 	bl	91a0 <RADIO_SetupRegisters>
    22c4:	220a      	movs	r2, #10
    22c6:	4b03      	ldr	r3, [pc, #12]	; (22d4 <DUALWATCH_Alternate+0x30>)
    22c8:	801a      	strh	r2, [r3, #0]
    22ca:	bd10      	pop	{r4, pc}
    22cc:	200011f0 	.word	0x200011f0
    22d0:	200011d8 	.word	0x200011d8
    22d4:	20001094 	.word	0x20001094

000022d8 <MR_NextChannel>:
    22d8:	b5f0      	push	{r4, r5, r6, r7, lr}
    22da:	4c38      	ldr	r4, [pc, #224]	; (23bc <MR_NextChannel+0xe4>)
    22dc:	4d38      	ldr	r5, [pc, #224]	; (23c0 <MR_NextChannel+0xe8>)
    22de:	7fe3      	ldrb	r3, [r4, #31]
    22e0:	782a      	ldrb	r2, [r5, #0]
    22e2:	b085      	sub	sp, #20
    22e4:	18e3      	adds	r3, r4, r3
    22e6:	9202      	str	r2, [sp, #8]
    22e8:	1c5a      	adds	r2, r3, #1
    22ea:	7fd2      	ldrb	r2, [r2, #31]
    22ec:	9203      	str	r2, [sp, #12]
    22ee:	2a00      	cmp	r2, #0
    22f0:	d053      	beq.n	239a <MR_NextChannel+0xc2>
    22f2:	4e34      	ldr	r6, [pc, #208]	; (23c4 <MR_NextChannel+0xec>)
    22f4:	1d5a      	adds	r2, r3, #5
    22f6:	7fd2      	ldrb	r2, [r2, #31]
    22f8:	7831      	ldrb	r1, [r6, #0]
    22fa:	9201      	str	r2, [sp, #4]
    22fc:	2900      	cmp	r1, #0
    22fe:	d10b      	bne.n	2318 <MR_NextChannel+0x40>
    2300:	3303      	adds	r3, #3
    2302:	7fdf      	ldrb	r7, [r3, #31]
    2304:	9a02      	ldr	r2, [sp, #8]
    2306:	4b30      	ldr	r3, [pc, #192]	; (23c8 <MR_NextChannel+0xf0>)
    2308:	b2b8      	uxth	r0, r7
    230a:	701a      	strb	r2, [r3, #0]
    230c:	000a      	movs	r2, r1
    230e:	f006 fc45 	bl	8b9c <RADIO_CheckValidChannel>
    2312:	2800      	cmp	r0, #0
    2314:	d02c      	beq.n	2370 <MR_NextChannel+0x98>
    2316:	702f      	strb	r7, [r5, #0]
    2318:	4b2a      	ldr	r3, [pc, #168]	; (23c4 <MR_NextChannel+0xec>)
    231a:	781b      	ldrb	r3, [r3, #0]
    231c:	2b01      	cmp	r3, #1
    231e:	d029      	beq.n	2374 <MR_NextChannel+0x9c>
    2320:	4b28      	ldr	r3, [pc, #160]	; (23c4 <MR_NextChannel+0xec>)
    2322:	781b      	ldrb	r3, [r3, #0]
    2324:	2b02      	cmp	r3, #2
    2326:	d034      	beq.n	2392 <MR_NextChannel+0xba>
    2328:	4b25      	ldr	r3, [pc, #148]	; (23c0 <MR_NextChannel+0xe8>)
    232a:	9a02      	ldr	r2, [sp, #8]
    232c:	781b      	ldrb	r3, [r3, #0]
    232e:	4293      	cmp	r3, r2
    2330:	d00c      	beq.n	234c <MR_NextChannel+0x74>
    2332:	7a20      	ldrb	r0, [r4, #8]
    2334:	2102      	movs	r1, #2
    2336:	1822      	adds	r2, r4, r0
    2338:	7113      	strb	r3, [r2, #4]
    233a:	5423      	strb	r3, [r4, r0]
    233c:	f006 fd49 	bl	8dd2 <RADIO_ConfigureChannel>
    2340:	2001      	movs	r0, #1
    2342:	f006 ff2d 	bl	91a0 <RADIO_SetupRegisters>
    2346:	2201      	movs	r2, #1
    2348:	4b20      	ldr	r3, [pc, #128]	; (23cc <MR_NextChannel+0xf4>)
    234a:	701a      	strb	r2, [r3, #0]
    234c:	220a      	movs	r2, #10
    234e:	2100      	movs	r1, #0
    2350:	4b1f      	ldr	r3, [pc, #124]	; (23d0 <MR_NextChannel+0xf8>)
    2352:	801a      	strh	r2, [r3, #0]
    2354:	4b1f      	ldr	r3, [pc, #124]	; (23d4 <MR_NextChannel+0xfc>)
    2356:	7019      	strb	r1, [r3, #0]
    2358:	9b03      	ldr	r3, [sp, #12]
    235a:	428b      	cmp	r3, r1
    235c:	d006      	beq.n	236c <MR_NextChannel+0x94>
    235e:	4a19      	ldr	r2, [pc, #100]	; (23c4 <MR_NextChannel+0xec>)
    2360:	7813      	ldrb	r3, [r2, #0]
    2362:	3301      	adds	r3, #1
    2364:	b2db      	uxtb	r3, r3
    2366:	2b01      	cmp	r3, #1
    2368:	d826      	bhi.n	23b8 <MR_NextChannel+0xe0>
    236a:	7013      	strb	r3, [r2, #0]
    236c:	b005      	add	sp, #20
    236e:	bdf0      	pop	{r4, r5, r6, r7, pc}
    2370:	2301      	movs	r3, #1
    2372:	7033      	strb	r3, [r6, #0]
    2374:	466b      	mov	r3, sp
    2376:	2200      	movs	r2, #0
    2378:	8898      	ldrh	r0, [r3, #4]
    237a:	0011      	movs	r1, r2
    237c:	f006 fc0e 	bl	8b9c <RADIO_CheckValidChannel>
    2380:	2800      	cmp	r0, #0
    2382:	d003      	beq.n	238c <MR_NextChannel+0xb4>
    2384:	4b0e      	ldr	r3, [pc, #56]	; (23c0 <MR_NextChannel+0xe8>)
    2386:	9a01      	ldr	r2, [sp, #4]
    2388:	701a      	strb	r2, [r3, #0]
    238a:	e7c9      	b.n	2320 <MR_NextChannel+0x48>
    238c:	2202      	movs	r2, #2
    238e:	4b0d      	ldr	r3, [pc, #52]	; (23c4 <MR_NextChannel+0xec>)
    2390:	701a      	strb	r2, [r3, #0]
    2392:	4b0d      	ldr	r3, [pc, #52]	; (23c8 <MR_NextChannel+0xf0>)
    2394:	781a      	ldrb	r2, [r3, #0]
    2396:	4b0a      	ldr	r3, [pc, #40]	; (23c0 <MR_NextChannel+0xe8>)
    2398:	701a      	strb	r2, [r3, #0]
    239a:	2100      	movs	r1, #0
    239c:	4a0e      	ldr	r2, [pc, #56]	; (23d8 <MR_NextChannel+0x100>)
    239e:	7fe3      	ldrb	r3, [r4, #31]
    23a0:	7810      	ldrb	r0, [r2, #0]
    23a2:	5651      	ldrsb	r1, [r2, r1]
    23a4:	782a      	ldrb	r2, [r5, #0]
    23a6:	1880      	adds	r0, r0, r2
    23a8:	b2c0      	uxtb	r0, r0
    23aa:	2201      	movs	r2, #1
    23ac:	f006 fc2c 	bl	8c08 <RADIO_FindNextChannel>
    23b0:	28ff      	cmp	r0, #255	; 0xff
    23b2:	d0db      	beq.n	236c <MR_NextChannel+0x94>
    23b4:	7028      	strb	r0, [r5, #0]
    23b6:	e7b7      	b.n	2328 <MR_NextChannel+0x50>
    23b8:	7011      	strb	r1, [r2, #0]
    23ba:	e7d7      	b.n	236c <MR_NextChannel+0x94>
    23bc:	200011f0 	.word	0x200011f0
    23c0:	2000105c 	.word	0x2000105c
    23c4:	20001059 	.word	0x20001059
    23c8:	20001058 	.word	0x20001058
    23cc:	20001048 	.word	0x20001048
    23d0:	20000aba 	.word	0x20000aba
    23d4:	20000ab8 	.word	0x20000ab8
    23d8:	20000ab7 	.word	0x20000ab7

000023dc <APP_ProcessKey>:
    23dc:	b5f8      	push	{r3, r4, r5, r6, r7, lr}
    23de:	4bb8      	ldr	r3, [pc, #736]	; (26c0 <APP_ProcessKey+0x2e4>)
    23e0:	0004      	movs	r4, r0
    23e2:	781b      	ldrb	r3, [r3, #0]
    23e4:	000d      	movs	r5, r1
    23e6:	0016      	movs	r6, r2
    23e8:	2b05      	cmp	r3, #5
    23ea:	d102      	bne.n	23f2 <APP_ProcessKey+0x16>
    23ec:	2000      	movs	r0, #0
    23ee:	f006 f9f7 	bl	87e0 <FUNCTION_Select>
    23f2:	22fa      	movs	r2, #250	; 0xfa
    23f4:	4bb3      	ldr	r3, [pc, #716]	; (26c4 <APP_ProcessKey+0x2e8>)
    23f6:	0092      	lsls	r2, r2, #2
    23f8:	801a      	strh	r2, [r3, #0]
    23fa:	4bb3      	ldr	r3, [pc, #716]	; (26c8 <APP_ProcessKey+0x2ec>)
    23fc:	3338      	adds	r3, #56	; 0x38
    23fe:	781b      	ldrb	r3, [r3, #0]
    2400:	2b00      	cmp	r3, #0
    2402:	d002      	beq.n	240a <APP_ProcessKey+0x2e>
    2404:	221e      	movs	r2, #30
    2406:	4bb1      	ldr	r3, [pc, #708]	; (26cc <APP_ProcessKey+0x2f0>)
    2408:	701a      	strb	r2, [r3, #0]
    240a:	2d00      	cmp	r5, #0
    240c:	d140      	bne.n	2490 <APP_ProcessKey+0xb4>
    240e:	4fb0      	ldr	r7, [pc, #704]	; (26d0 <APP_ProcessKey+0x2f4>)
    2410:	783b      	ldrb	r3, [r7, #0]
    2412:	2b00      	cmp	r3, #0
    2414:	d002      	beq.n	241c <APP_ProcessKey+0x40>
    2416:	f007 fa17 	bl	9848 <SETTINGS_SaveVfoIndices>
    241a:	703d      	strb	r5, [r7, #0]
    241c:	4fad      	ldr	r7, [pc, #692]	; (26d4 <APP_ProcessKey+0x2f8>)
    241e:	783b      	ldrb	r3, [r7, #0]
    2420:	2b00      	cmp	r3, #0
    2422:	d003      	beq.n	242c <APP_ProcessKey+0x50>
    2424:	f007 fa2a 	bl	987c <SETTINGS_SaveSettings>
    2428:	2300      	movs	r3, #0
    242a:	703b      	strb	r3, [r7, #0]
    242c:	4baa      	ldr	r3, [pc, #680]	; (26d8 <APP_ProcessKey+0x2fc>)
    242e:	781b      	ldrb	r3, [r3, #0]
    2430:	2b00      	cmp	r3, #0
    2432:	d015      	beq.n	2460 <APP_ProcessKey+0x84>
    2434:	2700      	movs	r7, #0
    2436:	4ba9      	ldr	r3, [pc, #676]	; (26dc <APP_ProcessKey+0x300>)
    2438:	681a      	ldr	r2, [r3, #0]
    243a:	4ba3      	ldr	r3, [pc, #652]	; (26c8 <APP_ProcessKey+0x2ec>)
    243c:	7f90      	ldrb	r0, [r2, #30]
    243e:	7a59      	ldrb	r1, [r3, #9]
    2440:	2301      	movs	r3, #1
    2442:	f007 fb7b 	bl	9b3c <SETTINGS_SaveChannel>
    2446:	4ba4      	ldr	r3, [pc, #656]	; (26d8 <APP_ProcessKey+0x2fc>)
    2448:	2101      	movs	r1, #1
    244a:	701f      	strb	r7, [r3, #0]
    244c:	4b9e      	ldr	r3, [pc, #632]	; (26c8 <APP_ProcessKey+0x2ec>)
    244e:	7a58      	ldrb	r0, [r3, #9]
    2450:	f006 fcbf 	bl	8dd2 <RADIO_ConfigureChannel>
    2454:	2001      	movs	r0, #1
    2456:	f006 fea3 	bl	91a0 <RADIO_SetupRegisters>
    245a:	0038      	movs	r0, r7
    245c:	f009 f8bc 	bl	b5d8 <GUI_SelectNextDisplay>
    2460:	4b99      	ldr	r3, [pc, #612]	; (26c8 <APP_ProcessKey+0x2ec>)
    2462:	7c9b      	ldrb	r3, [r3, #18]
    2464:	2b00      	cmp	r3, #0
    2466:	d02b      	beq.n	24c0 <APP_ProcessKey+0xe4>
    2468:	4b95      	ldr	r3, [pc, #596]	; (26c0 <APP_ProcessKey+0x2e4>)
    246a:	781b      	ldrb	r3, [r3, #0]
    246c:	2b01      	cmp	r3, #1
    246e:	d027      	beq.n	24c0 <APP_ProcessKey+0xe4>
    2470:	2c15      	cmp	r4, #21
    2472:	d025      	beq.n	24c0 <APP_ProcessKey+0xe4>
    2474:	2c0f      	cmp	r4, #15
    2476:	d137      	bne.n	24e8 <APP_ProcessKey+0x10c>
    2478:	2e00      	cmp	r6, #0
    247a:	d11f      	bne.n	24bc <APP_ProcessKey+0xe0>
    247c:	2d00      	cmp	r5, #0
    247e:	d01c      	beq.n	24ba <APP_ProcessKey+0xde>
    2480:	2002      	movs	r0, #2
    2482:	f005 f9f3 	bl	786c <AUDIO_PlayBeep>
    2486:	2204      	movs	r2, #4
    2488:	4b95      	ldr	r3, [pc, #596]	; (26e0 <APP_ProcessKey+0x304>)
    248a:	701a      	strb	r2, [r3, #0]
    248c:	4b95      	ldr	r3, [pc, #596]	; (26e4 <APP_ProcessKey+0x308>)
    248e:	e012      	b.n	24b6 <APP_ProcessKey+0xda>
    2490:	2c15      	cmp	r4, #21
    2492:	d002      	beq.n	249a <APP_ProcessKey+0xbe>
    2494:	2210      	movs	r2, #16
    2496:	4b94      	ldr	r3, [pc, #592]	; (26e8 <APP_ProcessKey+0x30c>)
    2498:	701a      	strb	r2, [r3, #0]
    249a:	f7fe fb01 	bl	aa0 <BACKLIGHT_TurnOn>
    249e:	4b93      	ldr	r3, [pc, #588]	; (26ec <APP_ProcessKey+0x310>)
    24a0:	781a      	ldrb	r2, [r3, #0]
    24a2:	2a00      	cmp	r2, #0
    24a4:	d0dc      	beq.n	2460 <APP_ProcessKey+0x84>
    24a6:	2200      	movs	r2, #0
    24a8:	2001      	movs	r0, #1
    24aa:	701a      	strb	r2, [r3, #0]
    24ac:	f005 f9de 	bl	786c <AUDIO_PlayBeep>
    24b0:	2c15      	cmp	r4, #21
    24b2:	d0d5      	beq.n	2460 <APP_ProcessKey+0x84>
    24b4:	4b8e      	ldr	r3, [pc, #568]	; (26f0 <APP_ProcessKey+0x314>)
    24b6:	2201      	movs	r2, #1
    24b8:	701a      	strb	r2, [r3, #0]
    24ba:	bdf8      	pop	{r3, r4, r5, r6, r7, pc}
    24bc:	2d00      	cmp	r5, #0
    24be:	d0fc      	beq.n	24ba <APP_ProcessKey+0xde>
    24c0:	4b8c      	ldr	r3, [pc, #560]	; (26f4 <APP_ProcessKey+0x318>)
    24c2:	4a8d      	ldr	r2, [pc, #564]	; (26f8 <APP_ProcessKey+0x31c>)
    24c4:	781b      	ldrb	r3, [r3, #0]
    24c6:	7812      	ldrb	r2, [r2, #0]
    24c8:	4313      	orrs	r3, r2
    24ca:	d016      	beq.n	24fa <APP_ProcessKey+0x11e>
    24cc:	2c15      	cmp	r4, #21
    24ce:	d014      	beq.n	24fa <APP_ProcessKey+0x11e>
    24d0:	0023      	movs	r3, r4
    24d2:	3b0b      	subs	r3, #11
    24d4:	2b03      	cmp	r3, #3
    24d6:	d910      	bls.n	24fa <APP_ProcessKey+0x11e>
    24d8:	2d00      	cmp	r5, #0
    24da:	d0ee      	beq.n	24ba <APP_ProcessKey+0xde>
    24dc:	2e00      	cmp	r6, #0
    24de:	d1ec      	bne.n	24ba <APP_ProcessKey+0xde>
    24e0:	2002      	movs	r0, #2
    24e2:	f005 f9c3 	bl	786c <AUDIO_PlayBeep>
    24e6:	e7e8      	b.n	24ba <APP_ProcessKey+0xde>
    24e8:	0023      	movs	r3, r4
    24ea:	3b16      	subs	r3, #22
    24ec:	2b01      	cmp	r3, #1
    24ee:	d9e7      	bls.n	24c0 <APP_ProcessKey+0xe4>
    24f0:	2d00      	cmp	r5, #0
    24f2:	d0e2      	beq.n	24ba <APP_ProcessKey+0xde>
    24f4:	2e00      	cmp	r6, #0
    24f6:	d1e0      	bne.n	24ba <APP_ProcessKey+0xde>
    24f8:	e7c2      	b.n	2480 <APP_ProcessKey+0xa4>
    24fa:	4a80      	ldr	r2, [pc, #512]	; (26fc <APP_ProcessKey+0x320>)
    24fc:	7813      	ldrb	r3, [r2, #0]
    24fe:	2b00      	cmp	r3, #0
    2500:	d006      	beq.n	2510 <APP_ProcessKey+0x134>
    2502:	2c15      	cmp	r4, #21
    2504:	d000      	beq.n	2508 <APP_ProcessKey+0x12c>
    2506:	e0ae      	b.n	2666 <APP_ProcessKey+0x28a>
    2508:	2d00      	cmp	r5, #0
    250a:	d000      	beq.n	250e <APP_ProcessKey+0x132>
    250c:	e0ad      	b.n	266a <APP_ProcessKey+0x28e>
    250e:	7015      	strb	r5, [r2, #0]
    2510:	4977      	ldr	r1, [pc, #476]	; (26f0 <APP_ProcessKey+0x314>)
    2512:	780a      	ldrb	r2, [r1, #0]
    2514:	2a00      	cmp	r2, #0
    2516:	d008      	beq.n	252a <APP_ProcessKey+0x14e>
    2518:	2c15      	cmp	r4, #21
    251a:	d006      	beq.n	252a <APP_ProcessKey+0x14e>
    251c:	2e00      	cmp	r6, #0
    251e:	d000      	beq.n	2522 <APP_ProcessKey+0x146>
    2520:	0033      	movs	r3, r6
    2522:	2d00      	cmp	r5, #0
    2524:	d101      	bne.n	252a <APP_ProcessKey+0x14e>
    2526:	0013      	movs	r3, r2
    2528:	700d      	strb	r5, [r1, #0]
    252a:	4975      	ldr	r1, [pc, #468]	; (2700 <APP_ProcessKey+0x324>)
    252c:	780a      	ldrb	r2, [r1, #0]
    252e:	2a00      	cmp	r2, #0
    2530:	d00a      	beq.n	2548 <APP_ProcessKey+0x16c>
    2532:	2c0f      	cmp	r4, #15
    2534:	d803      	bhi.n	253e <APP_ProcessKey+0x162>
    2536:	4a73      	ldr	r2, [pc, #460]	; (2704 <APP_ProcessKey+0x328>)
    2538:	40e2      	lsrs	r2, r4
    253a:	07d2      	lsls	r2, r2, #31
    253c:	d404      	bmi.n	2548 <APP_ProcessKey+0x16c>
    253e:	2200      	movs	r2, #0
    2540:	700a      	strb	r2, [r1, #0]
    2542:	2101      	movs	r1, #1
    2544:	4a70      	ldr	r2, [pc, #448]	; (2708 <APP_ProcessKey+0x32c>)
    2546:	7011      	strb	r1, [r2, #0]
    2548:	4a70      	ldr	r2, [pc, #448]	; (270c <APP_ProcessKey+0x330>)
    254a:	7812      	ldrb	r2, [r2, #0]
    254c:	2a00      	cmp	r2, #0
    254e:	d003      	beq.n	2558 <APP_ProcessKey+0x17c>
    2550:	0022      	movs	r2, r4
    2552:	3a15      	subs	r2, #21
    2554:	2a02      	cmp	r2, #2
    2556:	d9b0      	bls.n	24ba <APP_ProcessKey+0xde>
    2558:	2b00      	cmp	r3, #0
    255a:	d10a      	bne.n	2572 <APP_ProcessKey+0x196>
    255c:	4b58      	ldr	r3, [pc, #352]	; (26c0 <APP_ProcessKey+0x2e4>)
    255e:	781b      	ldrb	r3, [r3, #0]
    2560:	2b01      	cmp	r3, #1
    2562:	d000      	beq.n	2566 <APP_ProcessKey+0x18a>
    2564:	e11e      	b.n	27a4 <APP_ProcessKey+0x3c8>
    2566:	2c15      	cmp	r4, #21
    2568:	d000      	beq.n	256c <APP_ProcessKey+0x190>
    256a:	e080      	b.n	266e <APP_ProcessKey+0x292>
    256c:	0028      	movs	r0, r5
    256e:	f001 fd9b 	bl	40a8 <GENERIC_Key_PTT>
    2572:	4c67      	ldr	r4, [pc, #412]	; (2710 <APP_ProcessKey+0x334>)
    2574:	7820      	ldrb	r0, [r4, #0]
    2576:	2800      	cmp	r0, #0
    2578:	d003      	beq.n	2582 <APP_ProcessKey+0x1a6>
    257a:	f005 f977 	bl	786c <AUDIO_PlayBeep>
    257e:	2300      	movs	r3, #0
    2580:	7023      	strb	r3, [r4, #0]
    2582:	4c64      	ldr	r4, [pc, #400]	; (2714 <APP_ProcessKey+0x338>)
    2584:	7823      	ldrb	r3, [r4, #0]
    2586:	2b00      	cmp	r3, #0
    2588:	d006      	beq.n	2598 <APP_ProcessKey+0x1bc>
    258a:	f002 fa02 	bl	4992 <MENU_AcceptSetting>
    258e:	2301      	movs	r3, #1
    2590:	4a61      	ldr	r2, [pc, #388]	; (2718 <APP_ProcessKey+0x33c>)
    2592:	7013      	strb	r3, [r2, #0]
    2594:	2300      	movs	r3, #0
    2596:	7023      	strb	r3, [r4, #0]
    2598:	4c60      	ldr	r4, [pc, #384]	; (271c <APP_ProcessKey+0x340>)
    259a:	7823      	ldrb	r3, [r4, #0]
    259c:	2b00      	cmp	r3, #0
    259e:	d003      	beq.n	25a8 <APP_ProcessKey+0x1cc>
    25a0:	f7fe ffcf 	bl	1542 <BK4819_StopScan>
    25a4:	2300      	movs	r3, #0
    25a6:	7023      	strb	r3, [r4, #0]
    25a8:	4c5d      	ldr	r4, [pc, #372]	; (2720 <APP_ProcessKey+0x344>)
    25aa:	7823      	ldrb	r3, [r4, #0]
    25ac:	2b00      	cmp	r3, #0
    25ae:	d009      	beq.n	25c4 <APP_ProcessKey+0x1e8>
    25b0:	2e00      	cmp	r6, #0
    25b2:	d000      	beq.n	25b6 <APP_ProcessKey+0x1da>
    25b4:	e13a      	b.n	282c <APP_ProcessKey+0x450>
    25b6:	f007 f961 	bl	987c <SETTINGS_SaveSettings>
    25ba:	2300      	movs	r3, #0
    25bc:	2201      	movs	r2, #1
    25be:	7023      	strb	r3, [r4, #0]
    25c0:	4b51      	ldr	r3, [pc, #324]	; (2708 <APP_ProcessKey+0x32c>)
    25c2:	701a      	strb	r2, [r3, #0]
    25c4:	4c57      	ldr	r4, [pc, #348]	; (2724 <APP_ProcessKey+0x348>)
    25c6:	7823      	ldrb	r3, [r4, #0]
    25c8:	2b00      	cmp	r3, #0
    25ca:	d006      	beq.n	25da <APP_ProcessKey+0x1fe>
    25cc:	2e00      	cmp	r6, #0
    25ce:	d000      	beq.n	25d2 <APP_ProcessKey+0x1f6>
    25d0:	e130      	b.n	2834 <APP_ProcessKey+0x458>
    25d2:	f007 f939 	bl	9848 <SETTINGS_SaveVfoIndices>
    25d6:	2300      	movs	r3, #0
    25d8:	7023      	strb	r3, [r4, #0]
    25da:	4f53      	ldr	r7, [pc, #332]	; (2728 <APP_ProcessKey+0x34c>)
    25dc:	4d53      	ldr	r5, [pc, #332]	; (272c <APP_ProcessKey+0x350>)
    25de:	783b      	ldrb	r3, [r7, #0]
    25e0:	4c53      	ldr	r4, [pc, #332]	; (2730 <APP_ProcessKey+0x354>)
    25e2:	2b00      	cmp	r3, #0
    25e4:	d011      	beq.n	260a <APP_ProcessKey+0x22e>
    25e6:	2e00      	cmp	r6, #0
    25e8:	d000      	beq.n	25ec <APP_ProcessKey+0x210>
    25ea:	e127      	b.n	283c <APP_ProcessKey+0x460>
    25ec:	4a3b      	ldr	r2, [pc, #236]	; (26dc <APP_ProcessKey+0x300>)
    25ee:	4936      	ldr	r1, [pc, #216]	; (26c8 <APP_ProcessKey+0x2ec>)
    25f0:	6812      	ldr	r2, [r2, #0]
    25f2:	7a49      	ldrb	r1, [r1, #9]
    25f4:	7f90      	ldrb	r0, [r2, #30]
    25f6:	f007 faa1 	bl	9b3c <SETTINGS_SaveChannel>
    25fa:	4b4e      	ldr	r3, [pc, #312]	; (2734 <APP_ProcessKey+0x358>)
    25fc:	781b      	ldrb	r3, [r3, #0]
    25fe:	2b02      	cmp	r3, #2
    2600:	d001      	beq.n	2606 <APP_ProcessKey+0x22a>
    2602:	2301      	movs	r3, #1
    2604:	702b      	strb	r3, [r5, #0]
    2606:	2300      	movs	r3, #0
    2608:	703b      	strb	r3, [r7, #0]
    260a:	7829      	ldrb	r1, [r5, #0]
    260c:	4e4a      	ldr	r6, [pc, #296]	; (2738 <APP_ProcessKey+0x35c>)
    260e:	2900      	cmp	r1, #0
    2610:	d100      	bne.n	2614 <APP_ProcessKey+0x238>
    2612:	e120      	b.n	2856 <APP_ProcessKey+0x47a>
    2614:	4f49      	ldr	r7, [pc, #292]	; (273c <APP_ProcessKey+0x360>)
    2616:	783b      	ldrb	r3, [r7, #0]
    2618:	2b00      	cmp	r3, #0
    261a:	d100      	bne.n	261e <APP_ProcessKey+0x242>
    261c:	e118      	b.n	2850 <APP_ProcessKey+0x474>
    261e:	2000      	movs	r0, #0
    2620:	f006 fbd7 	bl	8dd2 <RADIO_ConfigureChannel>
    2624:	2001      	movs	r0, #1
    2626:	7829      	ldrb	r1, [r5, #0]
    2628:	f006 fbd3 	bl	8dd2 <RADIO_ConfigureChannel>
    262c:	7823      	ldrb	r3, [r4, #0]
    262e:	2bff      	cmp	r3, #255	; 0xff
    2630:	d101      	bne.n	2636 <APP_ProcessKey+0x25a>
    2632:	2300      	movs	r3, #0
    2634:	7023      	strb	r3, [r4, #0]
    2636:	2301      	movs	r3, #1
    2638:	7033      	strb	r3, [r6, #0]
    263a:	2300      	movs	r3, #0
    263c:	702b      	strb	r3, [r5, #0]
    263e:	703b      	strb	r3, [r7, #0]
    2640:	f006 fd7f 	bl	9142 <RADIO_SelectVfos>
    2644:	2001      	movs	r0, #1
    2646:	f006 fdab 	bl	91a0 <RADIO_SetupRegisters>
    264a:	2300      	movs	r3, #0
    264c:	4a3c      	ldr	r2, [pc, #240]	; (2740 <APP_ProcessKey+0x364>)
    264e:	7033      	strb	r3, [r6, #0]
    2650:	7013      	strb	r3, [r2, #0]
    2652:	4a3c      	ldr	r2, [pc, #240]	; (2744 <APP_ProcessKey+0x368>)
    2654:	7013      	strb	r3, [r2, #0]
    2656:	4a3c      	ldr	r2, [pc, #240]	; (2748 <APP_ProcessKey+0x36c>)
    2658:	7013      	strb	r3, [r2, #0]
    265a:	4a3c      	ldr	r2, [pc, #240]	; (274c <APP_ProcessKey+0x370>)
    265c:	7013      	strb	r3, [r2, #0]
    265e:	4a3c      	ldr	r2, [pc, #240]	; (2750 <APP_ProcessKey+0x374>)
    2660:	7013      	strb	r3, [r2, #0]
    2662:	7053      	strb	r3, [r2, #1]
    2664:	e0fb      	b.n	285e <APP_ProcessKey+0x482>
    2666:	2300      	movs	r3, #0
    2668:	e752      	b.n	2510 <APP_ProcessKey+0x134>
    266a:	0033      	movs	r3, r6
    266c:	e750      	b.n	2510 <APP_ProcessKey+0x134>
    266e:	27fe      	movs	r7, #254	; 0xfe
    2670:	2c16      	cmp	r4, #22
    2672:	d006      	beq.n	2682 <APP_ProcessKey+0x2a6>
    2674:	0020      	movs	r0, r4
    2676:	f001 faa8 	bl	3bca <DTMF_GetCharacter>
    267a:	0007      	movs	r7, r0
    267c:	28ff      	cmp	r0, #255	; 0xff
    267e:	d100      	bne.n	2682 <APP_ProcessKey+0x2a6>
    2680:	e777      	b.n	2572 <APP_ProcessKey+0x196>
    2682:	2e00      	cmp	r6, #0
    2684:	d117      	bne.n	26b6 <APP_ProcessKey+0x2da>
    2686:	2d00      	cmp	r5, #0
    2688:	d171      	bne.n	276e <APP_ProcessKey+0x392>
    268a:	2104      	movs	r1, #4
    268c:	4831      	ldr	r0, [pc, #196]	; (2754 <APP_ProcessKey+0x378>)
    268e:	f7ff f8f6 	bl	187e <GPIO_ClearBit>
    2692:	2000      	movs	r0, #0
    2694:	4b30      	ldr	r3, [pc, #192]	; (2758 <APP_ProcessKey+0x37c>)
    2696:	7018      	strb	r0, [r3, #0]
    2698:	f7fe fdf4 	bl	1284 <BK4819_ExitDTMF_TX>
    269c:	4b2f      	ldr	r3, [pc, #188]	; (275c <APP_ProcessKey+0x380>)
    269e:	681b      	ldr	r3, [r3, #0]
    26a0:	332a      	adds	r3, #42	; 0x2a
    26a2:	7818      	ldrb	r0, [r3, #0]
    26a4:	2800      	cmp	r0, #0
    26a6:	d003      	beq.n	26b0 <APP_ProcessKey+0x2d4>
    26a8:	4b2d      	ldr	r3, [pc, #180]	; (2760 <APP_ProcessKey+0x384>)
    26aa:	781b      	ldrb	r3, [r3, #0]
    26ac:	2b00      	cmp	r3, #0
    26ae:	d159      	bne.n	2764 <APP_ProcessKey+0x388>
    26b0:	f7fe fd32 	bl	1118 <BK4819_DisableScramble>
    26b4:	e75d      	b.n	2572 <APP_ProcessKey+0x196>
    26b6:	2d00      	cmp	r5, #0
    26b8:	d000      	beq.n	26bc <APP_ProcessKey+0x2e0>
    26ba:	e75a      	b.n	2572 <APP_ProcessKey+0x196>
    26bc:	e7e5      	b.n	268a <APP_ProcessKey+0x2ae>
    26be:	46c0      	nop			; (mov r8, r8)
    26c0:	20001011 	.word	0x20001011
    26c4:	20000562 	.word	0x20000562
    26c8:	200011f0 	.word	0x200011f0
    26cc:	2000108d 	.word	0x2000108d
    26d0:	20001073 	.word	0x20001073
    26d4:	20001072 	.word	0x20001072
    26d8:	20001071 	.word	0x20001071
    26dc:	200011e0 	.word	0x200011e0
    26e0:	2000107d 	.word	0x2000107d
    26e4:	20001048 	.word	0x20001048
    26e8:	20001080 	.word	0x20001080
    26ec:	20000a88 	.word	0x20000a88
    26f0:	2000107f 	.word	0x2000107f
    26f4:	20000ab7 	.word	0x20000ab7
    26f8:	20001082 	.word	0x20001082
    26fc:	2000107e 	.word	0x2000107e
    2700:	20000642 	.word	0x20000642
    2704:	0000dbff 	.word	0x0000dbff
    2708:	2000108a 	.word	0x2000108a
    270c:	20001047 	.word	0x20001047
    2710:	20001010 	.word	0x20001010
    2714:	20001075 	.word	0x20001075
    2718:	20001074 	.word	0x20001074
    271c:	20000ab3 	.word	0x20000ab3
    2720:	20001077 	.word	0x20001077
    2724:	20001079 	.word	0x20001079
    2728:	20001078 	.word	0x20001078
    272c:	2000107b 	.word	0x2000107b
    2730:	20000639 	.word	0x20000639
    2734:	20000638 	.word	0x20000638
    2738:	2000107c 	.word	0x2000107c
    273c:	2000107a 	.word	0x2000107a
    2740:	20000a8f 	.word	0x20000a8f
    2744:	20000a6f 	.word	0x20000a6f
    2748:	20000a8b 	.word	0x20000a8b
    274c:	20000a8c 	.word	0x20000a8c
    2750:	20001085 	.word	0x20001085
    2754:	40061000 	.word	0x40061000
    2758:	2000108e 	.word	0x2000108e
    275c:	200011dc 	.word	0x200011dc
    2760:	200011c8 	.word	0x200011c8
    2764:	3801      	subs	r0, #1
    2766:	b2c0      	uxtb	r0, r0
    2768:	f7fe fce1 	bl	112e <BK4819_EnableScramble>
    276c:	e701      	b.n	2572 <APP_ProcessKey+0x196>
    276e:	4b4d      	ldr	r3, [pc, #308]	; (28a4 <APP_ProcessKey+0x4c8>)
    2770:	338e      	adds	r3, #142	; 0x8e
    2772:	781b      	ldrb	r3, [r3, #0]
    2774:	2b00      	cmp	r3, #0
    2776:	d006      	beq.n	2786 <APP_ProcessKey+0x3aa>
    2778:	2104      	movs	r1, #4
    277a:	484b      	ldr	r0, [pc, #300]	; (28a8 <APP_ProcessKey+0x4cc>)
    277c:	f7ff f890 	bl	18a0 <GPIO_SetBit>
    2780:	2201      	movs	r2, #1
    2782:	4b4a      	ldr	r3, [pc, #296]	; (28ac <APP_ProcessKey+0x4d0>)
    2784:	701a      	strb	r2, [r3, #0]
    2786:	f7fe fcc7 	bl	1118 <BK4819_DisableScramble>
    278a:	4b46      	ldr	r3, [pc, #280]	; (28a4 <APP_ProcessKey+0x4c8>)
    278c:	338e      	adds	r3, #142	; 0x8e
    278e:	7818      	ldrb	r0, [r3, #0]
    2790:	2ffe      	cmp	r7, #254	; 0xfe
    2792:	d103      	bne.n	279c <APP_ProcessKey+0x3c0>
    2794:	4946      	ldr	r1, [pc, #280]	; (28b0 <APP_ProcessKey+0x4d4>)
    2796:	f7ff f823 	bl	17e0 <BK4819_TransmitTone>
    279a:	e6ea      	b.n	2572 <APP_ProcessKey+0x196>
    279c:	0039      	movs	r1, r7
    279e:	f7fe ff92 	bl	16c6 <BK4819_PlayDTMFEx>
    27a2:	e6e6      	b.n	2572 <APP_ProcessKey+0x196>
    27a4:	0022      	movs	r2, r4
    27a6:	4f43      	ldr	r7, [pc, #268]	; (28b4 <APP_ProcessKey+0x4d8>)
    27a8:	3a16      	subs	r2, #22
    27aa:	783b      	ldrb	r3, [r7, #0]
    27ac:	2a01      	cmp	r2, #1
    27ae:	d92c      	bls.n	280a <APP_ProcessKey+0x42e>
    27b0:	2b00      	cmp	r3, #0
    27b2:	d10e      	bne.n	27d2 <APP_ProcessKey+0x3f6>
    27b4:	4b40      	ldr	r3, [pc, #256]	; (28b8 <APP_ProcessKey+0x4dc>)
    27b6:	781b      	ldrb	r3, [r3, #0]
    27b8:	2b02      	cmp	r3, #2
    27ba:	d01a      	beq.n	27f2 <APP_ProcessKey+0x416>
    27bc:	2b05      	cmp	r3, #5
    27be:	d01e      	beq.n	27fe <APP_ProcessKey+0x422>
    27c0:	2b00      	cmp	r3, #0
    27c2:	d000      	beq.n	27c6 <APP_ProcessKey+0x3ea>
    27c4:	e6d5      	b.n	2572 <APP_ProcessKey+0x196>
    27c6:	0032      	movs	r2, r6
    27c8:	0029      	movs	r1, r5
    27ca:	0020      	movs	r0, r4
    27cc:	f001 fde0 	bl	4390 <MAIN_ProcessKeys>
    27d0:	e6cf      	b.n	2572 <APP_ProcessKey+0x196>
    27d2:	2214      	movs	r2, #20
    27d4:	435a      	muls	r2, r3
    27d6:	4b39      	ldr	r3, [pc, #228]	; (28bc <APP_ProcessKey+0x4e0>)
    27d8:	189b      	adds	r3, r3, r2
    27da:	691b      	ldr	r3, [r3, #16]
    27dc:	2b00      	cmp	r3, #0
    27de:	d003      	beq.n	27e8 <APP_ProcessKey+0x40c>
    27e0:	0032      	movs	r2, r6
    27e2:	0029      	movs	r1, r5
    27e4:	0020      	movs	r0, r4
    27e6:	4798      	blx	r3
    27e8:	783b      	ldrb	r3, [r7, #0]
    27ea:	3b01      	subs	r3, #1
    27ec:	2b01      	cmp	r3, #1
    27ee:	d9e1      	bls.n	27b4 <APP_ProcessKey+0x3d8>
    27f0:	e663      	b.n	24ba <APP_ProcessKey+0xde>
    27f2:	0032      	movs	r2, r6
    27f4:	0029      	movs	r1, r5
    27f6:	0020      	movs	r0, r4
    27f8:	f002 fd0c 	bl	5214 <MENU_ProcessKeys>
    27fc:	e6b9      	b.n	2572 <APP_ProcessKey+0x196>
    27fe:	0032      	movs	r2, r6
    2800:	0029      	movs	r1, r5
    2802:	0020      	movs	r0, r4
    2804:	f002 feb4 	bl	5570 <CONTEXTMENU_ProcessKeys>
    2808:	e6b3      	b.n	2572 <APP_ProcessKey+0x196>
    280a:	2b02      	cmp	r3, #2
    280c:	d005      	beq.n	281a <APP_ProcessKey+0x43e>
    280e:	0032      	movs	r2, r6
    2810:	0029      	movs	r1, r5
    2812:	0020      	movs	r0, r4
    2814:	f7ff fca4 	bl	2160 <ACTION_Handle>
    2818:	e6ab      	b.n	2572 <APP_ProcessKey+0x196>
    281a:	2e00      	cmp	r6, #0
    281c:	d000      	beq.n	2820 <APP_ProcessKey+0x444>
    281e:	e6a8      	b.n	2572 <APP_ProcessKey+0x196>
    2820:	2d00      	cmp	r5, #0
    2822:	d100      	bne.n	2826 <APP_ProcessKey+0x44a>
    2824:	e6a5      	b.n	2572 <APP_ProcessKey+0x196>
    2826:	4a26      	ldr	r2, [pc, #152]	; (28c0 <APP_ProcessKey+0x4e4>)
    2828:	7013      	strb	r3, [r2, #0]
    282a:	e6a2      	b.n	2572 <APP_ProcessKey+0x196>
    282c:	2201      	movs	r2, #1
    282e:	4b25      	ldr	r3, [pc, #148]	; (28c4 <APP_ProcessKey+0x4e8>)
    2830:	701a      	strb	r2, [r3, #0]
    2832:	e6c2      	b.n	25ba <APP_ProcessKey+0x1de>
    2834:	2201      	movs	r2, #1
    2836:	4b24      	ldr	r3, [pc, #144]	; (28c8 <APP_ProcessKey+0x4ec>)
    2838:	701a      	strb	r2, [r3, #0]
    283a:	e6cc      	b.n	25d6 <APP_ProcessKey+0x1fa>
    283c:	2201      	movs	r2, #1
    283e:	4b23      	ldr	r3, [pc, #140]	; (28cc <APP_ProcessKey+0x4f0>)
    2840:	701a      	strb	r2, [r3, #0]
    2842:	7823      	ldrb	r3, [r4, #0]
    2844:	2bff      	cmp	r3, #255	; 0xff
    2846:	d000      	beq.n	284a <APP_ProcessKey+0x46e>
    2848:	e6dd      	b.n	2606 <APP_ProcessKey+0x22a>
    284a:	2300      	movs	r3, #0
    284c:	7023      	strb	r3, [r4, #0]
    284e:	e6da      	b.n	2606 <APP_ProcessKey+0x22a>
    2850:	4b14      	ldr	r3, [pc, #80]	; (28a4 <APP_ProcessKey+0x4c8>)
    2852:	7a58      	ldrb	r0, [r3, #9]
    2854:	e6e8      	b.n	2628 <APP_ProcessKey+0x24c>
    2856:	7833      	ldrb	r3, [r6, #0]
    2858:	2b00      	cmp	r3, #0
    285a:	d000      	beq.n	285e <APP_ProcessKey+0x482>
    285c:	e6f0      	b.n	2640 <APP_ProcessKey+0x264>
    285e:	4b1c      	ldr	r3, [pc, #112]	; (28d0 <APP_ProcessKey+0x4f4>)
    2860:	781b      	ldrb	r3, [r3, #0]
    2862:	2b00      	cmp	r3, #0
    2864:	d004      	beq.n	2870 <APP_ProcessKey+0x494>
    2866:	f002 fba3 	bl	4fb0 <MENU_ShowCurrentSetting>
    286a:	2300      	movs	r3, #0
    286c:	4a18      	ldr	r2, [pc, #96]	; (28d0 <APP_ProcessKey+0x4f4>)
    286e:	7013      	strb	r3, [r2, #0]
    2870:	4d18      	ldr	r5, [pc, #96]	; (28d4 <APP_ProcessKey+0x4f8>)
    2872:	782b      	ldrb	r3, [r5, #0]
    2874:	2b00      	cmp	r3, #0
    2876:	d006      	beq.n	2886 <APP_ProcessKey+0x4aa>
    2878:	f003 f828 	bl	58cc <SCANNER_Start>
    287c:	2202      	movs	r2, #2
    287e:	4b0d      	ldr	r3, [pc, #52]	; (28b4 <APP_ProcessKey+0x4d8>)
    2880:	701a      	strb	r2, [r3, #0]
    2882:	2300      	movs	r3, #0
    2884:	702b      	strb	r3, [r5, #0]
    2886:	4d14      	ldr	r5, [pc, #80]	; (28d8 <APP_ProcessKey+0x4fc>)
    2888:	782b      	ldrb	r3, [r5, #0]
    288a:	2b00      	cmp	r3, #0
    288c:	d003      	beq.n	2896 <APP_ProcessKey+0x4ba>
    288e:	f006 fe0d 	bl	94ac <RADIO_PrepareTX>
    2892:	2300      	movs	r3, #0
    2894:	702b      	strb	r3, [r5, #0]
    2896:	7820      	ldrb	r0, [r4, #0]
    2898:	f008 fe9e 	bl	b5d8 <GUI_SelectNextDisplay>
    289c:	23ff      	movs	r3, #255	; 0xff
    289e:	7023      	strb	r3, [r4, #0]
    28a0:	e60b      	b.n	24ba <APP_ProcessKey+0xde>
    28a2:	46c0      	nop			; (mov r8, r8)
    28a4:	200011f0 	.word	0x200011f0
    28a8:	40061000 	.word	0x40061000
    28ac:	2000108e 	.word	0x2000108e
    28b0:	000006d6 	.word	0x000006d6
    28b4:	20000638 	.word	0x20000638
    28b8:	20001325 	.word	0x20001325
    28bc:	0000db0c 	.word	0x0000db0c
    28c0:	20001010 	.word	0x20001010
    28c4:	20001072 	.word	0x20001072
    28c8:	20001073 	.word	0x20001073
    28cc:	20001071 	.word	0x20001071
    28d0:	20001074 	.word	0x20001074
    28d4:	20000ab4 	.word	0x20000ab4
    28d8:	20001076 	.word	0x20001076

000028dc <APP_CheckForIncoming.part.0>:
    28dc:	b510      	push	{r4, lr}
    28de:	4b18      	ldr	r3, [pc, #96]	; (2940 <APP_CheckForIncoming.part.0+0x64>)
    28e0:	781b      	ldrb	r3, [r3, #0]
    28e2:	2b00      	cmp	r3, #0
    28e4:	d123      	bne.n	292e <APP_CheckForIncoming.part.0+0x52>
    28e6:	4b17      	ldr	r3, [pc, #92]	; (2944 <APP_CheckForIncoming.part.0+0x68>)
    28e8:	781b      	ldrb	r3, [r3, #0]
    28ea:	2b00      	cmp	r3, #0
    28ec:	d00a      	beq.n	2904 <APP_CheckForIncoming.part.0+0x28>
    28ee:	4b16      	ldr	r3, [pc, #88]	; (2948 <APP_CheckForIncoming.part.0+0x6c>)
    28f0:	781a      	ldrb	r2, [r3, #0]
    28f2:	2a00      	cmp	r2, #0
    28f4:	d106      	bne.n	2904 <APP_CheckForIncoming.part.0+0x28>
    28f6:	2064      	movs	r0, #100	; 0x64
    28f8:	4914      	ldr	r1, [pc, #80]	; (294c <APP_CheckForIncoming.part.0+0x70>)
    28fa:	8008      	strh	r0, [r1, #0]
    28fc:	4914      	ldr	r1, [pc, #80]	; (2950 <APP_CheckForIncoming.part.0+0x74>)
    28fe:	700a      	strb	r2, [r1, #0]
    2900:	3201      	adds	r2, #1
    2902:	701a      	strb	r2, [r3, #0]
    2904:	4b13      	ldr	r3, [pc, #76]	; (2954 <APP_CheckForIncoming.part.0+0x78>)
    2906:	7e9b      	ldrb	r3, [r3, #26]
    2908:	2b00      	cmp	r3, #0
    290a:	d103      	bne.n	2914 <APP_CheckForIncoming.part.0+0x38>
    290c:	2003      	movs	r0, #3
    290e:	f005 ff67 	bl	87e0 <FUNCTION_Select>
    2912:	bd10      	pop	{r4, pc}
    2914:	4b0c      	ldr	r3, [pc, #48]	; (2948 <APP_CheckForIncoming.part.0+0x6c>)
    2916:	781b      	ldrb	r3, [r3, #0]
    2918:	2b00      	cmp	r3, #0
    291a:	d1f7      	bne.n	290c <APP_CheckForIncoming.part.0+0x30>
    291c:	2164      	movs	r1, #100	; 0x64
    291e:	4a0e      	ldr	r2, [pc, #56]	; (2958 <APP_CheckForIncoming.part.0+0x7c>)
    2920:	8011      	strh	r1, [r2, #0]
    2922:	4a0e      	ldr	r2, [pc, #56]	; (295c <APP_CheckForIncoming.part.0+0x80>)
    2924:	7013      	strb	r3, [r2, #0]
    2926:	2201      	movs	r2, #1
    2928:	4b07      	ldr	r3, [pc, #28]	; (2948 <APP_CheckForIncoming.part.0+0x6c>)
    292a:	701a      	strb	r2, [r3, #0]
    292c:	e7ee      	b.n	290c <APP_CheckForIncoming.part.0+0x30>
    292e:	4b06      	ldr	r3, [pc, #24]	; (2948 <APP_CheckForIncoming.part.0+0x6c>)
    2930:	781b      	ldrb	r3, [r3, #0]
    2932:	2b00      	cmp	r3, #0
    2934:	d1ea      	bne.n	290c <APP_CheckForIncoming.part.0+0x30>
    2936:	2114      	movs	r1, #20
    2938:	4a04      	ldr	r2, [pc, #16]	; (294c <APP_CheckForIncoming.part.0+0x70>)
    293a:	8011      	strh	r1, [r2, #0]
    293c:	4a04      	ldr	r2, [pc, #16]	; (2950 <APP_CheckForIncoming.part.0+0x74>)
    293e:	e7f1      	b.n	2924 <APP_CheckForIncoming.part.0+0x48>
    2940:	20000ab7 	.word	0x20000ab7
    2944:	20001082 	.word	0x20001082
    2948:	2000105b 	.word	0x2000105b
    294c:	20000aba 	.word	0x20000aba
    2950:	2000000d 	.word	0x2000000d
    2954:	200011f0 	.word	0x200011f0
    2958:	20001094 	.word	0x20001094
    295c:	20000561 	.word	0x20000561

00002960 <APP_StartListening>:
    2960:	b5f8      	push	{r3, r4, r5, r6, r7, lr}
    2962:	2701      	movs	r7, #1
    2964:	2600      	movs	r6, #0
    2966:	4c36      	ldr	r4, [pc, #216]	; (2a40 <APP_StartListening+0xe0>)
    2968:	4a36      	ldr	r2, [pc, #216]	; (2a44 <APP_StartListening+0xe4>)
    296a:	7a23      	ldrb	r3, [r4, #8]
    296c:	2104      	movs	r1, #4
    296e:	3301      	adds	r3, #1
    2970:	403b      	ands	r3, r7
    2972:	54d6      	strb	r6, [r2, r3]
    2974:	0005      	movs	r5, r0
    2976:	4834      	ldr	r0, [pc, #208]	; (2a48 <APP_StartListening+0xe8>)
    2978:	f7fe ff92 	bl	18a0 <GPIO_SetBit>
    297c:	4b33      	ldr	r3, [pc, #204]	; (2a4c <APP_StartListening+0xec>)
    297e:	701f      	strb	r7, [r3, #0]
    2980:	f7fe f88e 	bl	aa0 <BACKLIGHT_TurnOn>
    2984:	4b32      	ldr	r3, [pc, #200]	; (2a50 <APP_StartListening+0xf0>)
    2986:	781a      	ldrb	r2, [r3, #0]
    2988:	42b2      	cmp	r2, r6
    298a:	d008      	beq.n	299e <APP_StartListening+0x3e>
    298c:	7fa3      	ldrb	r3, [r4, #30]
    298e:	42b3      	cmp	r3, r6
    2990:	d031      	beq.n	29f6 <APP_StartListening+0x96>
    2992:	3b01      	subs	r3, #1
    2994:	42bb      	cmp	r3, r7
    2996:	d93a      	bls.n	2a0e <APP_StartListening+0xae>
    2998:	2101      	movs	r1, #1
    299a:	4b2e      	ldr	r3, [pc, #184]	; (2a54 <APP_StartListening+0xf4>)
    299c:	7019      	strb	r1, [r3, #0]
    299e:	4b2e      	ldr	r3, [pc, #184]	; (2a58 <APP_StartListening+0xf8>)
    29a0:	4e2e      	ldr	r6, [pc, #184]	; (2a5c <APP_StartListening+0xfc>)
    29a2:	7819      	ldrb	r1, [r3, #0]
    29a4:	2900      	cmp	r1, #0
    29a6:	d03b      	beq.n	2a20 <APP_StartListening+0xc0>
    29a8:	2202      	movs	r2, #2
    29aa:	701a      	strb	r2, [r3, #0]
    29ac:	2000      	movs	r0, #0
    29ae:	f7fe f987 	bl	cc0 <BK4819_SetAGC>
    29b2:	0023      	movs	r3, r4
    29b4:	3393      	adds	r3, #147	; 0x93
    29b6:	781b      	ldrb	r3, [r3, #0]
    29b8:	3494      	adds	r4, #148	; 0x94
    29ba:	7821      	ldrb	r1, [r4, #0]
    29bc:	011b      	lsls	r3, r3, #4
    29be:	4319      	orrs	r1, r3
    29c0:	23b0      	movs	r3, #176	; 0xb0
    29c2:	021b      	lsls	r3, r3, #8
    29c4:	4319      	orrs	r1, r3
    29c6:	2048      	movs	r0, #72	; 0x48
    29c8:	f7fe f948 	bl	c5c <BK4819_WriteRegister>
    29cc:	4b24      	ldr	r3, [pc, #144]	; (2a60 <APP_StartListening+0x100>)
    29ce:	681b      	ldr	r3, [r3, #0]
    29d0:	3333      	adds	r3, #51	; 0x33
    29d2:	7818      	ldrb	r0, [r3, #0]
    29d4:	f7fe fb1c 	bl	1010 <BK4819_SetModulation>
    29d8:	0028      	movs	r0, r5
    29da:	f005 ff01 	bl	87e0 <FUNCTION_Select>
    29de:	2d02      	cmp	r5, #2
    29e0:	d11a      	bne.n	2a18 <APP_StartListening+0xb8>
    29e2:	4b20      	ldr	r3, [pc, #128]	; (2a64 <APP_StartListening+0x104>)
    29e4:	781b      	ldrb	r3, [r3, #0]
    29e6:	2b02      	cmp	r3, #2
    29e8:	d002      	beq.n	29f0 <APP_StartListening+0x90>
    29ea:	2000      	movs	r0, #0
    29ec:	f008 fdf4 	bl	b5d8 <GUI_SelectNextDisplay>
    29f0:	2301      	movs	r3, #1
    29f2:	7033      	strb	r3, [r6, #0]
    29f4:	bdf8      	pop	{r3, r4, r5, r6, r7, pc}
    29f6:	4b1c      	ldr	r3, [pc, #112]	; (2a68 <APP_StartListening+0x108>)
    29f8:	7819      	ldrb	r1, [r3, #0]
    29fa:	2900      	cmp	r1, #0
    29fc:	d1cc      	bne.n	2998 <APP_StartListening+0x38>
    29fe:	26fa      	movs	r6, #250	; 0xfa
    2a00:	481a      	ldr	r0, [pc, #104]	; (2a6c <APP_StartListening+0x10c>)
    2a02:	0076      	lsls	r6, r6, #1
    2a04:	8006      	strh	r6, [r0, #0]
    2a06:	481a      	ldr	r0, [pc, #104]	; (2a70 <APP_StartListening+0x110>)
    2a08:	701f      	strb	r7, [r3, #0]
    2a0a:	7001      	strb	r1, [r0, #0]
    2a0c:	e7c4      	b.n	2998 <APP_StartListening+0x38>
    2a0e:	4b17      	ldr	r3, [pc, #92]	; (2a6c <APP_StartListening+0x10c>)
    2a10:	801e      	strh	r6, [r3, #0]
    2a12:	4b17      	ldr	r3, [pc, #92]	; (2a70 <APP_StartListening+0x110>)
    2a14:	701e      	strb	r6, [r3, #0]
    2a16:	e7bf      	b.n	2998 <APP_StartListening+0x38>
    2a18:	2201      	movs	r2, #1
    2a1a:	4b16      	ldr	r3, [pc, #88]	; (2a74 <APP_StartListening+0x114>)
    2a1c:	701a      	strb	r2, [r3, #0]
    2a1e:	e7e7      	b.n	29f0 <APP_StartListening+0x90>
    2a20:	2a00      	cmp	r2, #0
    2a22:	d1c3      	bne.n	29ac <APP_StartListening+0x4c>
    2a24:	7ea3      	ldrb	r3, [r4, #26]
    2a26:	2b00      	cmp	r3, #0
    2a28:	d0c0      	beq.n	29ac <APP_StartListening+0x4c>
    2a2a:	21b4      	movs	r1, #180	; 0xb4
    2a2c:	4b12      	ldr	r3, [pc, #72]	; (2a78 <APP_StartListening+0x118>)
    2a2e:	0049      	lsls	r1, r1, #1
    2a30:	8019      	strh	r1, [r3, #0]
    2a32:	4b12      	ldr	r3, [pc, #72]	; (2a7c <APP_StartListening+0x11c>)
    2a34:	701a      	strb	r2, [r3, #0]
    2a36:	2301      	movs	r3, #1
    2a38:	4a11      	ldr	r2, [pc, #68]	; (2a80 <APP_StartListening+0x120>)
    2a3a:	7033      	strb	r3, [r6, #0]
    2a3c:	7013      	strb	r3, [r2, #0]
    2a3e:	e7b5      	b.n	29ac <APP_StartListening+0x4c>
    2a40:	200011f0 	.word	0x200011f0
    2a44:	20001085 	.word	0x20001085
    2a48:	40061000 	.word	0x40061000
    2a4c:	2000108e 	.word	0x2000108e
    2a50:	20000ab7 	.word	0x20000ab7
    2a54:	20000ab8 	.word	0x20000ab8
    2a58:	20001082 	.word	0x20001082
    2a5c:	2000108a 	.word	0x2000108a
    2a60:	200011d8 	.word	0x200011d8
    2a64:	20001325 	.word	0x20001325
    2a68:	20000abc 	.word	0x20000abc
    2a6c:	20000aba 	.word	0x20000aba
    2a70:	2000000d 	.word	0x2000000d
    2a74:	20001048 	.word	0x20001048
    2a78:	20001094 	.word	0x20001094
    2a7c:	20000561 	.word	0x20000561
    2a80:	20001052 	.word	0x20001052

00002a84 <APP_SetFrequencyByStep>:
    2a84:	b5f7      	push	{r0, r1, r2, r4, r5, r6, r7, lr}
    2a86:	0005      	movs	r5, r0
    2a88:	4b21      	ldr	r3, [pc, #132]	; (2b10 <APP_SetFrequencyByStep+0x8c>)
    2a8a:	6800      	ldr	r0, [r0, #0]
    2a8c:	781b      	ldrb	r3, [r3, #0]
    2a8e:	8baf      	ldrh	r7, [r5, #28]
    2a90:	2b00      	cmp	r3, #0
    2a92:	d032      	beq.n	2afa <APP_SetFrequencyByStep+0x76>
    2a94:	4b1f      	ldr	r3, [pc, #124]	; (2b14 <APP_SetFrequencyByStep+0x90>)
    2a96:	4359      	muls	r1, r3
    2a98:	002b      	movs	r3, r5
    2a9a:	332e      	adds	r3, #46	; 0x2e
    2a9c:	781b      	ldrb	r3, [r3, #0]
    2a9e:	1808      	adds	r0, r1, r0
    2aa0:	00db      	lsls	r3, r3, #3
    2aa2:	9301      	str	r3, [sp, #4]
    2aa4:	9a01      	ldr	r2, [sp, #4]
    2aa6:	4b1c      	ldr	r3, [pc, #112]	; (2b18 <APP_SetFrequencyByStep+0x94>)
    2aa8:	58d6      	ldr	r6, [r2, r3]
    2aaa:	4b1c      	ldr	r3, [pc, #112]	; (2b1c <APP_SetFrequencyByStep+0x98>)
    2aac:	429f      	cmp	r7, r3
    2aae:	d117      	bne.n	2ae0 <APP_SetFrequencyByStep+0x5c>
    2ab0:	1b84      	subs	r4, r0, r6
    2ab2:	491b      	ldr	r1, [pc, #108]	; (2b20 <APP_SetFrequencyByStep+0x9c>)
    2ab4:	0020      	movs	r0, r4
    2ab6:	f008 ff1d 	bl	b8f4 <__udivsi3>
    2aba:	4919      	ldr	r1, [pc, #100]	; (2b20 <APP_SetFrequencyByStep+0x9c>)
    2abc:	4348      	muls	r0, r1
    2abe:	9000      	str	r0, [sp, #0]
    2ac0:	0020      	movs	r0, r4
    2ac2:	f008 ff9d 	bl	ba00 <__aeabi_uidivmod>
    2ac6:	0008      	movs	r0, r1
    2ac8:	0039      	movs	r1, r7
    2aca:	f008 ff13 	bl	b8f4 <__udivsi3>
    2ace:	1e83      	subs	r3, r0, #2
    2ad0:	425a      	negs	r2, r3
    2ad2:	4153      	adcs	r3, r2
    2ad4:	4378      	muls	r0, r7
    2ad6:	9a00      	ldr	r2, [sp, #0]
    2ad8:	1980      	adds	r0, r0, r6
    2ada:	18d3      	adds	r3, r2, r3
    2adc:	9300      	str	r3, [sp, #0]
    2ade:	18c0      	adds	r0, r0, r3
    2ae0:	4a0d      	ldr	r2, [pc, #52]	; (2b18 <APP_SetFrequencyByStep+0x94>)
    2ae2:	9b01      	ldr	r3, [sp, #4]
    2ae4:	4694      	mov	ip, r2
    2ae6:	4463      	add	r3, ip
    2ae8:	685b      	ldr	r3, [r3, #4]
    2aea:	4283      	cmp	r3, r0
    2aec:	d207      	bcs.n	2afe <APP_SetFrequencyByStep+0x7a>
    2aee:	0030      	movs	r0, r6
    2af0:	602e      	str	r6, [r5, #0]
    2af2:	2100      	movs	r1, #0
    2af4:	f7fe fe2c 	bl	1750 <BK4819_TuneTo>
    2af8:	bdf7      	pop	{r0, r1, r2, r4, r5, r6, r7, pc}
    2afa:	4379      	muls	r1, r7
    2afc:	e7cc      	b.n	2a98 <APP_SetFrequencyByStep+0x14>
    2afe:	42b0      	cmp	r0, r6
    2b00:	d204      	bcs.n	2b0c <APP_SetFrequencyByStep+0x88>
    2b02:	0032      	movs	r2, r6
    2b04:	0039      	movs	r1, r7
    2b06:	0018      	movs	r0, r3
    2b08:	f005 fd19 	bl	853e <FREQUENCY_FloorToStep>
    2b0c:	6028      	str	r0, [r5, #0]
    2b0e:	e7f0      	b.n	2af2 <APP_SetFrequencyByStep+0x6e>
    2b10:	20000642 	.word	0x20000642
    2b14:	000186a0 	.word	0x000186a0
    2b18:	0000d768 	.word	0x0000d768
    2b1c:	00000341 	.word	0x00000341
    2b20:	000009c4 	.word	0x000009c4

00002b24 <FREQ_NextChannel>:
    2b24:	2100      	movs	r1, #0
    2b26:	b510      	push	{r4, lr}
    2b28:	4b0c      	ldr	r3, [pc, #48]	; (2b5c <FREQ_NextChannel+0x38>)
    2b2a:	4c0d      	ldr	r4, [pc, #52]	; (2b60 <FREQ_NextChannel+0x3c>)
    2b2c:	5659      	ldrsb	r1, [r3, r1]
    2b2e:	6820      	ldr	r0, [r4, #0]
    2b30:	f7ff ffa8 	bl	2a84 <APP_SetFrequencyByStep>
    2b34:	6820      	ldr	r0, [r4, #0]
    2b36:	f006 f945 	bl	8dc4 <RADIO_ApplyOffset>
    2b3a:	6820      	ldr	r0, [r4, #0]
    2b3c:	f006 f882 	bl	8c44 <RADIO_ConfigureSquelchAndOutputPower>
    2b40:	2001      	movs	r0, #1
    2b42:	f006 fb2d 	bl	91a0 <RADIO_SetupRegisters>
    2b46:	2201      	movs	r2, #1
    2b48:	4b06      	ldr	r3, [pc, #24]	; (2b64 <FREQ_NextChannel+0x40>)
    2b4a:	701a      	strb	r2, [r3, #0]
    2b4c:	4b06      	ldr	r3, [pc, #24]	; (2b68 <FREQ_NextChannel+0x44>)
    2b4e:	3208      	adds	r2, #8
    2b50:	801a      	strh	r2, [r3, #0]
    2b52:	2200      	movs	r2, #0
    2b54:	4b05      	ldr	r3, [pc, #20]	; (2b6c <FREQ_NextChannel+0x48>)
    2b56:	701a      	strb	r2, [r3, #0]
    2b58:	bd10      	pop	{r4, pc}
    2b5a:	46c0      	nop			; (mov r8, r8)
    2b5c:	20000ab7 	.word	0x20000ab7
    2b60:	200011d8 	.word	0x200011d8
    2b64:	20001048 	.word	0x20001048
    2b68:	20000aba 	.word	0x20000aba
    2b6c:	20000ab8 	.word	0x20000ab8

00002b70 <APP_CheckRadioInterrupts>:
    2b70:	b5f7      	push	{r0, r1, r2, r4, r5, r6, r7, lr}
    2b72:	2501      	movs	r5, #1
    2b74:	200c      	movs	r0, #12
    2b76:	f7fd ffe7 	bl	b48 <BK4819_ReadRegister>
    2b7a:	4228      	tst	r0, r5
    2b7c:	d100      	bne.n	2b80 <APP_CheckRadioInterrupts+0x10>
    2b7e:	bdf7      	pop	{r0, r1, r2, r4, r5, r6, r7, pc}
    2b80:	2100      	movs	r1, #0
    2b82:	2002      	movs	r0, #2
    2b84:	f7fe f86a 	bl	c5c <BK4819_WriteRegister>
    2b88:	2002      	movs	r0, #2
    2b8a:	f7fd ffdd 	bl	b48 <BK4819_ReadRegister>
    2b8e:	2380      	movs	r3, #128	; 0x80
    2b90:	011b      	lsls	r3, r3, #4
    2b92:	0004      	movs	r4, r0
    2b94:	4218      	tst	r0, r3
    2b96:	d024      	beq.n	2be2 <APP_CheckRadioInterrupts+0x72>
    2b98:	2205      	movs	r2, #5
    2b9a:	4b3f      	ldr	r3, [pc, #252]	; (2c98 <APP_CheckRadioInterrupts+0x128>)
    2b9c:	4e3f      	ldr	r6, [pc, #252]	; (2c9c <APP_CheckRadioInterrupts+0x12c>)
    2b9e:	701d      	strb	r5, [r3, #0]
    2ba0:	4b3f      	ldr	r3, [pc, #252]	; (2ca0 <APP_CheckRadioInterrupts+0x130>)
    2ba2:	4f40      	ldr	r7, [pc, #256]	; (2ca4 <APP_CheckRadioInterrupts+0x134>)
    2ba4:	701a      	strb	r2, [r3, #0]
    2ba6:	7833      	ldrb	r3, [r6, #0]
    2ba8:	2b0f      	cmp	r3, #15
    2baa:	d90a      	bls.n	2bc2 <APP_CheckRadioInterrupts+0x52>
    2bac:	003a      	movs	r2, r7
    2bae:	230f      	movs	r3, #15
    2bb0:	7851      	ldrb	r1, [r2, #1]
    2bb2:	3b01      	subs	r3, #1
    2bb4:	b2db      	uxtb	r3, r3
    2bb6:	7011      	strb	r1, [r2, #0]
    2bb8:	3201      	adds	r2, #1
    2bba:	2b00      	cmp	r3, #0
    2bbc:	d1f8      	bne.n	2bb0 <APP_CheckRadioInterrupts+0x40>
    2bbe:	330f      	adds	r3, #15
    2bc0:	7033      	strb	r3, [r6, #0]
    2bc2:	f7fe fcc4 	bl	154e <BK4819_GetDTMF_5TONE_Code>
    2bc6:	7833      	ldrb	r3, [r6, #0]
    2bc8:	9301      	str	r3, [sp, #4]
    2bca:	3301      	adds	r3, #1
    2bcc:	7033      	strb	r3, [r6, #0]
    2bce:	f000 fffc 	bl	3bca <DTMF_GetCharacter>
    2bd2:	9b01      	ldr	r3, [sp, #4]
    2bd4:	54f8      	strb	r0, [r7, r3]
    2bd6:	4b34      	ldr	r3, [pc, #208]	; (2ca8 <APP_CheckRadioInterrupts+0x138>)
    2bd8:	781b      	ldrb	r3, [r3, #0]
    2bda:	2b04      	cmp	r3, #4
    2bdc:	d101      	bne.n	2be2 <APP_CheckRadioInterrupts+0x72>
    2bde:	f001 f85d 	bl	3c9c <DTMF_HandleRequest>
    2be2:	0563      	lsls	r3, r4, #21
    2be4:	d501      	bpl.n	2bea <APP_CheckRadioInterrupts+0x7a>
    2be6:	4b31      	ldr	r3, [pc, #196]	; (2cac <APP_CheckRadioInterrupts+0x13c>)
    2be8:	701d      	strb	r5, [r3, #0]
    2bea:	05e3      	lsls	r3, r4, #23
    2bec:	d505      	bpl.n	2bfa <APP_CheckRadioInterrupts+0x8a>
    2bee:	4b30      	ldr	r3, [pc, #192]	; (2cb0 <APP_CheckRadioInterrupts+0x140>)
    2bf0:	701d      	strb	r5, [r3, #0]
    2bf2:	f7fe fcb3 	bl	155c <BK4819_GetCDCSSCodeType>
    2bf6:	4b2f      	ldr	r3, [pc, #188]	; (2cb4 <APP_CheckRadioInterrupts+0x144>)
    2bf8:	7018      	strb	r0, [r3, #0]
    2bfa:	05a3      	lsls	r3, r4, #22
    2bfc:	d502      	bpl.n	2c04 <APP_CheckRadioInterrupts+0x94>
    2bfe:	2200      	movs	r2, #0
    2c00:	4b2b      	ldr	r3, [pc, #172]	; (2cb0 <APP_CheckRadioInterrupts+0x140>)
    2c02:	701a      	strb	r2, [r3, #0]
    2c04:	0663      	lsls	r3, r4, #25
    2c06:	d501      	bpl.n	2c0c <APP_CheckRadioInterrupts+0x9c>
    2c08:	4b2b      	ldr	r3, [pc, #172]	; (2cb8 <APP_CheckRadioInterrupts+0x148>)
    2c0a:	701d      	strb	r5, [r3, #0]
    2c0c:	0623      	lsls	r3, r4, #24
    2c0e:	d502      	bpl.n	2c16 <APP_CheckRadioInterrupts+0xa6>
    2c10:	2200      	movs	r2, #0
    2c12:	4b29      	ldr	r3, [pc, #164]	; (2cb8 <APP_CheckRadioInterrupts+0x148>)
    2c14:	701a      	strb	r2, [r3, #0]
    2c16:	06e3      	lsls	r3, r4, #27
    2c18:	d524      	bpl.n	2c64 <APP_CheckRadioInterrupts+0xf4>
    2c1a:	220a      	movs	r2, #10
    2c1c:	4b27      	ldr	r3, [pc, #156]	; (2cbc <APP_CheckRadioInterrupts+0x14c>)
    2c1e:	701d      	strb	r5, [r3, #0]
    2c20:	4b27      	ldr	r3, [pc, #156]	; (2cc0 <APP_CheckRadioInterrupts+0x150>)
    2c22:	801a      	strh	r2, [r3, #0]
    2c24:	4b27      	ldr	r3, [pc, #156]	; (2cc4 <APP_CheckRadioInterrupts+0x154>)
    2c26:	7cda      	ldrb	r2, [r3, #19]
    2c28:	2a00      	cmp	r2, #0
    2c2a:	d01b      	beq.n	2c64 <APP_CheckRadioInterrupts+0xf4>
    2c2c:	4a1e      	ldr	r2, [pc, #120]	; (2ca8 <APP_CheckRadioInterrupts+0x138>)
    2c2e:	7812      	ldrb	r2, [r2, #0]
    2c30:	2a05      	cmp	r2, #5
    2c32:	d108      	bne.n	2c46 <APP_CheckRadioInterrupts+0xd6>
    2c34:	4a24      	ldr	r2, [pc, #144]	; (2cc8 <APP_CheckRadioInterrupts+0x158>)
    2c36:	7812      	ldrb	r2, [r2, #0]
    2c38:	2a00      	cmp	r2, #0
    2c3a:	d104      	bne.n	2c46 <APP_CheckRadioInterrupts+0xd6>
    2c3c:	2014      	movs	r0, #20
    2c3e:	4923      	ldr	r1, [pc, #140]	; (2ccc <APP_CheckRadioInterrupts+0x15c>)
    2c40:	8008      	strh	r0, [r1, #0]
    2c42:	4923      	ldr	r1, [pc, #140]	; (2cd0 <APP_CheckRadioInterrupts+0x160>)
    2c44:	700a      	strb	r2, [r1, #0]
    2c46:	7e9b      	ldrb	r3, [r3, #26]
    2c48:	2b00      	cmp	r3, #0
    2c4a:	d00b      	beq.n	2c64 <APP_CheckRadioInterrupts+0xf4>
    2c4c:	4b21      	ldr	r3, [pc, #132]	; (2cd4 <APP_CheckRadioInterrupts+0x164>)
    2c4e:	4a22      	ldr	r2, [pc, #136]	; (2cd8 <APP_CheckRadioInterrupts+0x168>)
    2c50:	7819      	ldrb	r1, [r3, #0]
    2c52:	2900      	cmp	r1, #0
    2c54:	d102      	bne.n	2c5c <APP_CheckRadioInterrupts+0xec>
    2c56:	8811      	ldrh	r1, [r2, #0]
    2c58:	2913      	cmp	r1, #19
    2c5a:	d803      	bhi.n	2c64 <APP_CheckRadioInterrupts+0xf4>
    2c5c:	2114      	movs	r1, #20
    2c5e:	8011      	strh	r1, [r2, #0]
    2c60:	2200      	movs	r2, #0
    2c62:	701a      	strb	r2, [r3, #0]
    2c64:	06a3      	lsls	r3, r4, #26
    2c66:	d504      	bpl.n	2c72 <APP_CheckRadioInterrupts+0x102>
    2c68:	2300      	movs	r3, #0
    2c6a:	4a14      	ldr	r2, [pc, #80]	; (2cbc <APP_CheckRadioInterrupts+0x14c>)
    2c6c:	7013      	strb	r3, [r2, #0]
    2c6e:	4a14      	ldr	r2, [pc, #80]	; (2cc0 <APP_CheckRadioInterrupts+0x150>)
    2c70:	8013      	strh	r3, [r2, #0]
    2c72:	0763      	lsls	r3, r4, #29
    2c74:	d505      	bpl.n	2c82 <APP_CheckRadioInterrupts+0x112>
    2c76:	4b19      	ldr	r3, [pc, #100]	; (2cdc <APP_CheckRadioInterrupts+0x16c>)
    2c78:	2101      	movs	r1, #1
    2c7a:	2006      	movs	r0, #6
    2c7c:	701d      	strb	r5, [r3, #0]
    2c7e:	f7fe f8e7 	bl	e50 <BK4819_ToggleGpioOut>
    2c82:	0723      	lsls	r3, r4, #28
    2c84:	d400      	bmi.n	2c88 <APP_CheckRadioInterrupts+0x118>
    2c86:	e775      	b.n	2b74 <APP_CheckRadioInterrupts+0x4>
    2c88:	2100      	movs	r1, #0
    2c8a:	4b14      	ldr	r3, [pc, #80]	; (2cdc <APP_CheckRadioInterrupts+0x16c>)
    2c8c:	2006      	movs	r0, #6
    2c8e:	7019      	strb	r1, [r3, #0]
    2c90:	f7fe f8de 	bl	e50 <BK4819_ToggleGpioOut>
    2c94:	e76e      	b.n	2b74 <APP_CheckRadioInterrupts+0x4>
    2c96:	46c0      	nop			; (mov r8, r8)
    2c98:	20001070 	.word	0x20001070
    2c9c:	20000a5d 	.word	0x20000a5d
    2ca0:	20000a8d 	.word	0x20000a8d
    2ca4:	20000a5e 	.word	0x20000a5e
    2ca8:	20001011 	.word	0x20001011
    2cac:	2000106c 	.word	0x2000106c
    2cb0:	2000106f 	.word	0x2000106f
    2cb4:	2000106e 	.word	0x2000106e
    2cb8:	2000106d 	.word	0x2000106d
    2cbc:	2000106b 	.word	0x2000106b
    2cc0:	20001064 	.word	0x20001064
    2cc4:	200011f0 	.word	0x200011f0
    2cc8:	20000640 	.word	0x20000640
    2ccc:	20001032 	.word	0x20001032
    2cd0:	2000103c 	.word	0x2000103c
    2cd4:	20000561 	.word	0x20000561
    2cd8:	20001094 	.word	0x20001094
    2cdc:	2000106a 	.word	0x2000106a

00002ce0 <APP_EndTransmission>:
    2ce0:	b510      	push	{r4, lr}
    2ce2:	f006 fc85 	bl	95f0 <RADIO_SendEndOfTransmission>
    2ce6:	4b0b      	ldr	r3, [pc, #44]	; (2d14 <APP_EndTransmission+0x34>)
    2ce8:	681b      	ldr	r3, [r3, #0]
    2cea:	695b      	ldr	r3, [r3, #20]
    2cec:	791b      	ldrb	r3, [r3, #4]
    2cee:	2b00      	cmp	r3, #0
    2cf0:	d005      	beq.n	2cfe <APP_EndTransmission+0x1e>
    2cf2:	4b09      	ldr	r3, [pc, #36]	; (2d18 <APP_EndTransmission+0x38>)
    2cf4:	7e1b      	ldrb	r3, [r3, #24]
    2cf6:	2b00      	cmp	r3, #0
    2cf8:	d005      	beq.n	2d06 <APP_EndTransmission+0x26>
    2cfa:	f006 fc57 	bl	95ac <RADIO_EnableCxCSS>
    2cfe:	2000      	movs	r0, #0
    2d00:	f006 fa4e 	bl	91a0 <RADIO_SetupRegisters>
    2d04:	bd10      	pop	{r4, pc}
    2d06:	f7fe faa9 	bl	125c <BK4819_ExitSubAu>
    2d0a:	20c8      	movs	r0, #200	; 0xc8
    2d0c:	f7ff f9a4 	bl	2058 <SYSTEM_DelayMs>
    2d10:	e7f5      	b.n	2cfe <APP_EndTransmission+0x1e>
    2d12:	46c0      	nop			; (mov r8, r8)
    2d14:	200011dc 	.word	0x200011dc
    2d18:	200011f0 	.word	0x200011f0

00002d1c <APP_Update>:
    2d1c:	b5f8      	push	{r3, r4, r5, r6, r7, lr}
    2d1e:	4cbc      	ldr	r4, [pc, #752]	; (3010 <APP_Update+0x2f4>)
    2d20:	7823      	ldrb	r3, [r4, #0]
    2d22:	2b01      	cmp	r3, #1
    2d24:	d111      	bne.n	2d4a <APP_Update+0x2e>
    2d26:	4abb      	ldr	r2, [pc, #748]	; (3014 <APP_Update+0x2f8>)
    2d28:	7811      	ldrb	r1, [r2, #0]
    2d2a:	2900      	cmp	r1, #0
    2d2c:	d00d      	beq.n	2d4a <APP_Update+0x2e>
    2d2e:	2100      	movs	r1, #0
    2d30:	7011      	strb	r1, [r2, #0]
    2d32:	4ab9      	ldr	r2, [pc, #740]	; (3018 <APP_Update+0x2fc>)
    2d34:	7013      	strb	r3, [r2, #0]
    2d36:	f7ff ffd3 	bl	2ce0 <APP_EndTransmission>
    2d3a:	2004      	movs	r0, #4
    2d3c:	f004 fd96 	bl	786c <AUDIO_PlayBeep>
    2d40:	2004      	movs	r0, #4
    2d42:	f006 fb94 	bl	946e <RADIO_SetVfoState>
    2d46:	f008 fc31 	bl	b5ac <GUI_DisplayScreen>
    2d4a:	4bb4      	ldr	r3, [pc, #720]	; (301c <APP_Update+0x300>)
    2d4c:	781d      	ldrb	r5, [r3, #0]
    2d4e:	2d00      	cmp	r5, #0
    2d50:	d000      	beq.n	2d54 <APP_Update+0x38>
    2d52:	e2bc      	b.n	32ce <APP_Update+0x5b2>
    2d54:	7820      	ldrb	r0, [r4, #0]
    2d56:	4fb2      	ldr	r7, [pc, #712]	; (3020 <APP_Update+0x304>)
    2d58:	2801      	cmp	r0, #1
    2d5a:	d010      	beq.n	2d7e <APP_Update+0x62>
    2d5c:	2805      	cmp	r0, #5
    2d5e:	d80e      	bhi.n	2d7e <APP_Update+0x62>
    2d60:	f008 fdaa 	bl	b8b8 <__gnu_thumb1_case_uqi>
    2d64:	9a0d0d07 	.word	0x9a0d0d07
    2d68:	03ea      	.short	0x03ea
    2d6a:	4bae      	ldr	r3, [pc, #696]	; (3024 <APP_Update+0x308>)
    2d6c:	781b      	ldrb	r3, [r3, #0]
    2d6e:	2b00      	cmp	r3, #0
    2d70:	d105      	bne.n	2d7e <APP_Update+0x62>
    2d72:	4bad      	ldr	r3, [pc, #692]	; (3028 <APP_Update+0x30c>)
    2d74:	781b      	ldrb	r3, [r3, #0]
    2d76:	2b00      	cmp	r3, #0
    2d78:	d001      	beq.n	2d7e <APP_Update+0x62>
    2d7a:	f7ff fdaf 	bl	28dc <APP_CheckForIncoming.part.0>
    2d7e:	4dab      	ldr	r5, [pc, #684]	; (302c <APP_Update+0x310>)
    2d80:	782b      	ldrb	r3, [r5, #0]
    2d82:	2b02      	cmp	r3, #2
    2d84:	d020      	beq.n	2dc8 <APP_Update+0xac>
    2d86:	4baa      	ldr	r3, [pc, #680]	; (3030 <APP_Update+0x314>)
    2d88:	781b      	ldrb	r3, [r3, #0]
    2d8a:	2b00      	cmp	r3, #0
    2d8c:	d01c      	beq.n	2dc8 <APP_Update+0xac>
    2d8e:	4ea9      	ldr	r6, [pc, #676]	; (3034 <APP_Update+0x318>)
    2d90:	7833      	ldrb	r3, [r6, #0]
    2d92:	2b00      	cmp	r3, #0
    2d94:	d018      	beq.n	2dc8 <APP_Update+0xac>
    2d96:	4ba8      	ldr	r3, [pc, #672]	; (3038 <APP_Update+0x31c>)
    2d98:	781b      	ldrb	r3, [r3, #0]
    2d9a:	2b00      	cmp	r3, #0
    2d9c:	d114      	bne.n	2dc8 <APP_Update+0xac>
    2d9e:	4ba7      	ldr	r3, [pc, #668]	; (303c <APP_Update+0x320>)
    2da0:	781b      	ldrb	r3, [r3, #0]
    2da2:	3338      	adds	r3, #56	; 0x38
    2da4:	b2db      	uxtb	r3, r3
    2da6:	2b06      	cmp	r3, #6
    2da8:	d900      	bls.n	2dac <APP_Update+0x90>
    2daa:	e1f1      	b.n	3190 <APP_Update+0x474>
    2dac:	7823      	ldrb	r3, [r4, #0]
    2dae:	2b03      	cmp	r3, #3
    2db0:	d000      	beq.n	2db4 <APP_Update+0x98>
    2db2:	e1ea      	b.n	318a <APP_Update+0x46e>
    2db4:	2101      	movs	r1, #1
    2db6:	2004      	movs	r0, #4
    2db8:	f7ff fdd2 	bl	2960 <APP_StartListening>
    2dbc:	2300      	movs	r3, #0
    2dbe:	4aa0      	ldr	r2, [pc, #640]	; (3040 <APP_Update+0x324>)
    2dc0:	7033      	strb	r3, [r6, #0]
    2dc2:	7013      	strb	r3, [r2, #0]
    2dc4:	4a9f      	ldr	r2, [pc, #636]	; (3044 <APP_Update+0x328>)
    2dc6:	7013      	strb	r3, [r2, #0]
    2dc8:	4b9f      	ldr	r3, [pc, #636]	; (3048 <APP_Update+0x32c>)
    2dca:	781b      	ldrb	r3, [r3, #0]
    2dcc:	2b01      	cmp	r3, #1
    2dce:	d107      	bne.n	2de0 <APP_Update+0xc4>
    2dd0:	4e98      	ldr	r6, [pc, #608]	; (3034 <APP_Update+0x318>)
    2dd2:	7833      	ldrb	r3, [r6, #0]
    2dd4:	2b00      	cmp	r3, #0
    2dd6:	d003      	beq.n	2de0 <APP_Update+0xc4>
    2dd8:	f001 fffe 	bl	4dd8 <MENU_SelectNextCode>
    2ddc:	2300      	movs	r3, #0
    2dde:	7033      	strb	r3, [r6, #0]
    2de0:	782b      	ldrb	r3, [r5, #0]
    2de2:	2b02      	cmp	r3, #2
    2de4:	d029      	beq.n	2e3a <APP_Update+0x11e>
    2de6:	7ebb      	ldrb	r3, [r7, #26]
    2de8:	2b00      	cmp	r3, #0
    2dea:	d026      	beq.n	2e3a <APP_Update+0x11e>
    2dec:	4d97      	ldr	r5, [pc, #604]	; (304c <APP_Update+0x330>)
    2dee:	782b      	ldrb	r3, [r5, #0]
    2df0:	2b00      	cmp	r3, #0
    2df2:	d022      	beq.n	2e3a <APP_Update+0x11e>
    2df4:	4b90      	ldr	r3, [pc, #576]	; (3038 <APP_Update+0x31c>)
    2df6:	781b      	ldrb	r3, [r3, #0]
    2df8:	2b00      	cmp	r3, #0
    2dfa:	d11e      	bne.n	2e3a <APP_Update+0x11e>
    2dfc:	4b8c      	ldr	r3, [pc, #560]	; (3030 <APP_Update+0x314>)
    2dfe:	4a92      	ldr	r2, [pc, #584]	; (3048 <APP_Update+0x32c>)
    2e00:	781b      	ldrb	r3, [r3, #0]
    2e02:	7812      	ldrb	r2, [r2, #0]
    2e04:	4313      	orrs	r3, r2
    2e06:	4a92      	ldr	r2, [pc, #584]	; (3050 <APP_Update+0x334>)
    2e08:	7812      	ldrb	r2, [r2, #0]
    2e0a:	4313      	orrs	r3, r2
    2e0c:	d115      	bne.n	2e3a <APP_Update+0x11e>
    2e0e:	7823      	ldrb	r3, [r4, #0]
    2e10:	2b05      	cmp	r3, #5
    2e12:	d012      	beq.n	2e3a <APP_Update+0x11e>
    2e14:	f7ff fa46 	bl	22a4 <DUALWATCH_Alternate>
    2e18:	4e8e      	ldr	r6, [pc, #568]	; (3054 <APP_Update+0x338>)
    2e1a:	7833      	ldrb	r3, [r6, #0]
    2e1c:	2b00      	cmp	r3, #0
    2e1e:	d005      	beq.n	2e2c <APP_Update+0x110>
    2e20:	4b8d      	ldr	r3, [pc, #564]	; (3058 <APP_Update+0x33c>)
    2e22:	7818      	ldrb	r0, [r3, #0]
    2e24:	2800      	cmp	r0, #0
    2e26:	d101      	bne.n	2e2c <APP_Update+0x110>
    2e28:	f008 fbd6 	bl	b5d8 <GUI_SelectNextDisplay>
    2e2c:	2300      	movs	r3, #0
    2e2e:	4a84      	ldr	r2, [pc, #528]	; (3040 <APP_Update+0x324>)
    2e30:	7033      	strb	r3, [r6, #0]
    2e32:	7013      	strb	r3, [r2, #0]
    2e34:	4a83      	ldr	r2, [pc, #524]	; (3044 <APP_Update+0x328>)
    2e36:	702b      	strb	r3, [r5, #0]
    2e38:	7013      	strb	r3, [r2, #0]
    2e3a:	7cfb      	ldrb	r3, [r7, #19]
    2e3c:	2b00      	cmp	r3, #0
    2e3e:	d009      	beq.n	2e54 <APP_Update+0x138>
    2e40:	4b86      	ldr	r3, [pc, #536]	; (305c <APP_Update+0x340>)
    2e42:	881a      	ldrh	r2, [r3, #0]
    2e44:	4b86      	ldr	r3, [pc, #536]	; (3060 <APP_Update+0x344>)
    2e46:	2a00      	cmp	r2, #0
    2e48:	d000      	beq.n	2e4c <APP_Update+0x130>
    2e4a:	e1ac      	b.n	31a6 <APP_Update+0x48a>
    2e4c:	881b      	ldrh	r3, [r3, #0]
    2e4e:	2b00      	cmp	r3, #0
    2e50:	d100      	bne.n	2e54 <APP_Update+0x138>
    2e52:	e1ac      	b.n	31ae <APP_Update+0x492>
    2e54:	4d83      	ldr	r5, [pc, #524]	; (3064 <APP_Update+0x348>)
    2e56:	782b      	ldrb	r3, [r5, #0]
    2e58:	2b00      	cmp	r3, #0
    2e5a:	d100      	bne.n	2e5e <APP_Update+0x142>
    2e5c:	e20d      	b.n	327a <APP_Update+0x55e>
    2e5e:	7f3b      	ldrb	r3, [r7, #28]
    2e60:	2b00      	cmp	r3, #0
    2e62:	d014      	beq.n	2e8e <APP_Update+0x172>
    2e64:	4b74      	ldr	r3, [pc, #464]	; (3038 <APP_Update+0x31c>)
    2e66:	781b      	ldrb	r3, [r3, #0]
    2e68:	2b00      	cmp	r3, #0
    2e6a:	d110      	bne.n	2e8e <APP_Update+0x172>
    2e6c:	4b7e      	ldr	r3, [pc, #504]	; (3068 <APP_Update+0x34c>)
    2e6e:	781b      	ldrb	r3, [r3, #0]
    2e70:	2b00      	cmp	r3, #0
    2e72:	d10c      	bne.n	2e8e <APP_Update+0x172>
    2e74:	4b6e      	ldr	r3, [pc, #440]	; (3030 <APP_Update+0x314>)
    2e76:	4a74      	ldr	r2, [pc, #464]	; (3048 <APP_Update+0x32c>)
    2e78:	781b      	ldrb	r3, [r3, #0]
    2e7a:	7812      	ldrb	r2, [r2, #0]
    2e7c:	4313      	orrs	r3, r2
    2e7e:	4a76      	ldr	r2, [pc, #472]	; (3058 <APP_Update+0x33c>)
    2e80:	7812      	ldrb	r2, [r2, #0]
    2e82:	4313      	orrs	r3, r2
    2e84:	4a72      	ldr	r2, [pc, #456]	; (3050 <APP_Update+0x334>)
    2e86:	7812      	ldrb	r2, [r2, #0]
    2e88:	4313      	orrs	r3, r2
    2e8a:	d100      	bne.n	2e8e <APP_Update+0x172>
    2e8c:	e1e8      	b.n	3260 <APP_Update+0x544>
    2e8e:	22fa      	movs	r2, #250	; 0xfa
    2e90:	4b76      	ldr	r3, [pc, #472]	; (306c <APP_Update+0x350>)
    2e92:	0092      	lsls	r2, r2, #2
    2e94:	801a      	strh	r2, [r3, #0]
    2e96:	e1ee      	b.n	3276 <APP_Update+0x55a>
    2e98:	4b63      	ldr	r3, [pc, #396]	; (3028 <APP_Update+0x30c>)
    2e9a:	7818      	ldrb	r0, [r3, #0]
    2e9c:	2800      	cmp	r0, #0
    2e9e:	d105      	bne.n	2eac <APP_Update+0x190>
    2ea0:	f005 fc9e 	bl	87e0 <FUNCTION_Select>
    2ea4:	2201      	movs	r2, #1
    2ea6:	4b72      	ldr	r3, [pc, #456]	; (3070 <APP_Update+0x354>)
    2ea8:	701a      	strb	r2, [r3, #0]
    2eaa:	e768      	b.n	2d7e <APP_Update+0x62>
    2eac:	4b71      	ldr	r3, [pc, #452]	; (3074 <APP_Update+0x358>)
    2eae:	4d60      	ldr	r5, [pc, #384]	; (3030 <APP_Update+0x314>)
    2eb0:	781a      	ldrb	r2, [r3, #0]
    2eb2:	782b      	ldrb	r3, [r5, #0]
    2eb4:	4313      	orrs	r3, r2
    2eb6:	4259      	negs	r1, r3
    2eb8:	414b      	adcs	r3, r1
    2eba:	496f      	ldr	r1, [pc, #444]	; (3078 <APP_Update+0x35c>)
    2ebc:	b2db      	uxtb	r3, r3
    2ebe:	7809      	ldrb	r1, [r1, #0]
    2ec0:	2900      	cmp	r1, #0
    2ec2:	d005      	beq.n	2ed0 <APP_Update+0x1b4>
    2ec4:	2a01      	cmp	r2, #1
    2ec6:	d103      	bne.n	2ed0 <APP_Update+0x1b4>
    2ec8:	2000      	movs	r0, #0
    2eca:	4b6c      	ldr	r3, [pc, #432]	; (307c <APP_Update+0x360>)
    2ecc:	7018      	strb	r0, [r3, #0]
    2ece:	000b      	movs	r3, r1
    2ed0:	496b      	ldr	r1, [pc, #428]	; (3080 <APP_Update+0x364>)
    2ed2:	7809      	ldrb	r1, [r1, #0]
    2ed4:	2900      	cmp	r1, #0
    2ed6:	d027      	beq.n	2f28 <APP_Update+0x20c>
    2ed8:	496a      	ldr	r1, [pc, #424]	; (3084 <APP_Update+0x368>)
    2eda:	7809      	ldrb	r1, [r1, #0]
    2edc:	2901      	cmp	r1, #1
    2ede:	d123      	bne.n	2f28 <APP_Update+0x20c>
    2ee0:	3a02      	subs	r2, #2
    2ee2:	2a01      	cmp	r2, #1
    2ee4:	d820      	bhi.n	2f28 <APP_Update+0x20c>
    2ee6:	2200      	movs	r2, #0
    2ee8:	4b67      	ldr	r3, [pc, #412]	; (3088 <APP_Update+0x36c>)
    2eea:	701a      	strb	r2, [r3, #0]
    2eec:	f000 fed6 	bl	3c9c <DTMF_HandleRequest>
    2ef0:	4a55      	ldr	r2, [pc, #340]	; (3048 <APP_Update+0x32c>)
    2ef2:	782b      	ldrb	r3, [r5, #0]
    2ef4:	7812      	ldrb	r2, [r2, #0]
    2ef6:	4313      	orrs	r3, r2
    2ef8:	d119      	bne.n	2f2e <APP_Update+0x212>
    2efa:	4b64      	ldr	r3, [pc, #400]	; (308c <APP_Update+0x370>)
    2efc:	681b      	ldr	r3, [r3, #0]
    2efe:	332f      	adds	r3, #47	; 0x2f
    2f00:	781b      	ldrb	r3, [r3, #0]
    2f02:	2b00      	cmp	r3, #0
    2f04:	d013      	beq.n	2f2e <APP_Update+0x212>
    2f06:	4b52      	ldr	r3, [pc, #328]	; (3050 <APP_Update+0x334>)
    2f08:	781a      	ldrb	r2, [r3, #0]
    2f0a:	2a00      	cmp	r2, #0
    2f0c:	d10f      	bne.n	2f2e <APP_Update+0x212>
    2f0e:	4b4d      	ldr	r3, [pc, #308]	; (3044 <APP_Update+0x328>)
    2f10:	7819      	ldrb	r1, [r3, #0]
    2f12:	2901      	cmp	r1, #1
    2f14:	d000      	beq.n	2f18 <APP_Update+0x1fc>
    2f16:	e732      	b.n	2d7e <APP_Update+0x62>
    2f18:	20fa      	movs	r0, #250	; 0xfa
    2f1a:	495d      	ldr	r1, [pc, #372]	; (3090 <APP_Update+0x374>)
    2f1c:	0040      	lsls	r0, r0, #1
    2f1e:	8008      	strh	r0, [r1, #0]
    2f20:	494a      	ldr	r1, [pc, #296]	; (304c <APP_Update+0x330>)
    2f22:	700a      	strb	r2, [r1, #0]
    2f24:	3202      	adds	r2, #2
    2f26:	e7bf      	b.n	2ea8 <APP_Update+0x18c>
    2f28:	2b00      	cmp	r3, #0
    2f2a:	d1df      	bne.n	2eec <APP_Update+0x1d0>
    2f2c:	e727      	b.n	2d7e <APP_Update+0x62>
    2f2e:	2100      	movs	r1, #0
    2f30:	2004      	movs	r0, #4
    2f32:	f7ff fd15 	bl	2960 <APP_StartListening>
    2f36:	e722      	b.n	2d7e <APP_Update+0x62>
    2f38:	4b56      	ldr	r3, [pc, #344]	; (3094 <APP_Update+0x378>)
    2f3a:	781b      	ldrb	r3, [r3, #0]
    2f3c:	2b00      	cmp	r3, #0
    2f3e:	d10e      	bne.n	2f5e <APP_Update+0x242>
    2f40:	4b3b      	ldr	r3, [pc, #236]	; (3030 <APP_Update+0x314>)
    2f42:	781b      	ldrb	r3, [r3, #0]
    2f44:	2b00      	cmp	r3, #0
    2f46:	d01f      	beq.n	2f88 <APP_Update+0x26c>
    2f48:	4b3c      	ldr	r3, [pc, #240]	; (303c <APP_Update+0x320>)
    2f4a:	781b      	ldrb	r3, [r3, #0]
    2f4c:	3338      	adds	r3, #56	; 0x38
    2f4e:	b2db      	uxtb	r3, r3
    2f50:	2b06      	cmp	r3, #6
    2f52:	d819      	bhi.n	2f88 <APP_Update+0x26c>
    2f54:	4b34      	ldr	r3, [pc, #208]	; (3028 <APP_Update+0x30c>)
    2f56:	781b      	ldrb	r3, [r3, #0]
    2f58:	2b00      	cmp	r3, #0
    2f5a:	d000      	beq.n	2f5e <APP_Update+0x242>
    2f5c:	e70f      	b.n	2d7e <APP_Update+0x62>
    2f5e:	2001      	movs	r0, #1
    2f60:	f006 f91e 	bl	91a0 <RADIO_SetupRegisters>
    2f64:	2201      	movs	r2, #1
    2f66:	4b42      	ldr	r3, [pc, #264]	; (3070 <APP_Update+0x354>)
    2f68:	701a      	strb	r2, [r3, #0]
    2f6a:	4b31      	ldr	r3, [pc, #196]	; (3030 <APP_Update+0x314>)
    2f6c:	781b      	ldrb	r3, [r3, #0]
    2f6e:	2b00      	cmp	r3, #0
    2f70:	d100      	bne.n	2f74 <APP_Update+0x258>
    2f72:	e704      	b.n	2d7e <APP_Update+0x62>
    2f74:	7fbb      	ldrb	r3, [r7, #30]
    2f76:	4293      	cmp	r3, r2
    2f78:	d100      	bne.n	2f7c <APP_Update+0x260>
    2f7a:	e0ff      	b.n	317c <APP_Update+0x460>
    2f7c:	2b02      	cmp	r3, #2
    2f7e:	d000      	beq.n	2f82 <APP_Update+0x266>
    2f80:	e6fd      	b.n	2d7e <APP_Update+0x62>
    2f82:	f002 fd09 	bl	5998 <SCANNER_Stop>
    2f86:	e6fa      	b.n	2d7e <APP_Update+0x62>
    2f88:	4b3a      	ldr	r3, [pc, #232]	; (3074 <APP_Update+0x358>)
    2f8a:	781b      	ldrb	r3, [r3, #0]
    2f8c:	2b01      	cmp	r3, #1
    2f8e:	d100      	bne.n	2f92 <APP_Update+0x276>
    2f90:	e08c      	b.n	30ac <APP_Update+0x390>
    2f92:	1e9a      	subs	r2, r3, #2
    2f94:	2a01      	cmp	r2, #1
    2f96:	d804      	bhi.n	2fa2 <APP_Update+0x286>
    2f98:	4a3b      	ldr	r2, [pc, #236]	; (3088 <APP_Update+0x36c>)
    2f9a:	7812      	ldrb	r2, [r2, #0]
    2f9c:	2a00      	cmp	r2, #0
    2f9e:	d000      	beq.n	2fa2 <APP_Update+0x286>
    2fa0:	e094      	b.n	30cc <APP_Update+0x3b0>
    2fa2:	4a21      	ldr	r2, [pc, #132]	; (3028 <APP_Update+0x30c>)
    2fa4:	7812      	ldrb	r2, [r2, #0]
    2fa6:	2a00      	cmp	r2, #0
    2fa8:	d100      	bne.n	2fac <APP_Update+0x290>
    2faa:	e0cd      	b.n	3148 <APP_Update+0x42c>
    2fac:	4a3a      	ldr	r2, [pc, #232]	; (3098 <APP_Update+0x37c>)
    2fae:	7812      	ldrb	r2, [r2, #0]
    2fb0:	2a00      	cmp	r2, #0
    2fb2:	d10d      	bne.n	2fd0 <APP_Update+0x2b4>
    2fb4:	4935      	ldr	r1, [pc, #212]	; (308c <APP_Update+0x370>)
    2fb6:	6809      	ldr	r1, [r1, #0]
    2fb8:	7f89      	ldrb	r1, [r1, #30]
    2fba:	29ce      	cmp	r1, #206	; 0xce
    2fbc:	d808      	bhi.n	2fd0 <APP_Update+0x2b4>
    2fbe:	2b01      	cmp	r3, #1
    2fc0:	d100      	bne.n	2fc4 <APP_Update+0x2a8>
    2fc2:	e093      	b.n	30ec <APP_Update+0x3d0>
    2fc4:	d800      	bhi.n	2fc8 <APP_Update+0x2ac>
    2fc6:	e083      	b.n	30d0 <APP_Update+0x3b4>
    2fc8:	3b02      	subs	r3, #2
    2fca:	2b01      	cmp	r3, #1
    2fcc:	d800      	bhi.n	2fd0 <APP_Update+0x2b4>
    2fce:	e09c      	b.n	310a <APP_Update+0x3ee>
    2fd0:	4e31      	ldr	r6, [pc, #196]	; (3098 <APP_Update+0x37c>)
    2fd2:	7833      	ldrb	r3, [r6, #0]
    2fd4:	2b00      	cmp	r3, #0
    2fd6:	d100      	bne.n	2fda <APP_Update+0x2be>
    2fd8:	e0b8      	b.n	314c <APP_Update+0x430>
    2fda:	2200      	movs	r2, #0
    2fdc:	4b2f      	ldr	r3, [pc, #188]	; (309c <APP_Update+0x380>)
    2fde:	701a      	strb	r2, [r3, #0]
    2fe0:	2d01      	cmp	r5, #1
    2fe2:	d0bc      	beq.n	2f5e <APP_Update+0x242>
    2fe4:	2d02      	cmp	r5, #2
    2fe6:	d000      	beq.n	2fea <APP_Update+0x2ce>
    2fe8:	e6c9      	b.n	2d7e <APP_Update+0x62>
    2fea:	7e3b      	ldrb	r3, [r7, #24]
    2fec:	2b00      	cmp	r3, #0
    2fee:	d100      	bne.n	2ff2 <APP_Update+0x2d6>
    2ff0:	e6c5      	b.n	2d7e <APP_Update+0x62>
    2ff2:	2104      	movs	r1, #4
    2ff4:	482a      	ldr	r0, [pc, #168]	; (30a0 <APP_Update+0x384>)
    2ff6:	f7fe fc42 	bl	187e <GPIO_ClearBit>
    2ffa:	2214      	movs	r2, #20
    2ffc:	4b29      	ldr	r3, [pc, #164]	; (30a4 <APP_Update+0x388>)
    2ffe:	801a      	strh	r2, [r3, #0]
    3000:	2300      	movs	r3, #0
    3002:	4a24      	ldr	r2, [pc, #144]	; (3094 <APP_Update+0x378>)
    3004:	7013      	strb	r3, [r2, #0]
    3006:	4a28      	ldr	r2, [pc, #160]	; (30a8 <APP_Update+0x38c>)
    3008:	7013      	strb	r3, [r2, #0]
    300a:	3301      	adds	r3, #1
    300c:	7033      	strb	r3, [r6, #0]
    300e:	e6b6      	b.n	2d7e <APP_Update+0x62>
    3010:	20001011 	.word	0x20001011
    3014:	2000103f 	.word	0x2000103f
    3018:	20001060 	.word	0x20001060
    301c:	20001084 	.word	0x20001084
    3020:	200011f0 	.word	0x200011f0
    3024:	20000640 	.word	0x20000640
    3028:	2000106a 	.word	0x2000106a
    302c:	20000638 	.word	0x20000638
    3030:	20000ab7 	.word	0x20000ab7
    3034:	2000000d 	.word	0x2000000d
    3038:	20001050 	.word	0x20001050
    303c:	2000105c 	.word	0x2000105c
    3040:	20000abc 	.word	0x20000abc
    3044:	2000105b 	.word	0x2000105b
    3048:	20001082 	.word	0x20001082
    304c:	20000561 	.word	0x20000561
    3050:	20000a6f 	.word	0x20000a6f
    3054:	20001052 	.word	0x20001052
    3058:	20001325 	.word	0x20001325
    305c:	20001066 	.word	0x20001066
    3060:	20001064 	.word	0x20001064
    3064:	2000103d 	.word	0x2000103d
    3068:	20001051 	.word	0x20001051
    306c:	20000562 	.word	0x20000562
    3070:	20001048 	.word	0x20001048
    3074:	200011ea 	.word	0x200011ea
    3078:	2000106d 	.word	0x2000106d
    307c:	20001089 	.word	0x20001089
    3080:	2000106f 	.word	0x2000106f
    3084:	2000106e 	.word	0x2000106e
    3088:	20001088 	.word	0x20001088
    308c:	200011d8 	.word	0x200011d8
    3090:	20001094 	.word	0x20001094
    3094:	2000103a 	.word	0x2000103a
    3098:	20001087 	.word	0x20001087
    309c:	2000103e 	.word	0x2000103e
    30a0:	40061000 	.word	0x40061000
    30a4:	20001090 	.word	0x20001090
    30a8:	2000108e 	.word	0x2000108e
    30ac:	4a9a      	ldr	r2, [pc, #616]	; (3318 <APP_Update+0x5fc>)
    30ae:	7812      	ldrb	r2, [r2, #0]
    30b0:	2a00      	cmp	r2, #0
    30b2:	d100      	bne.n	30b6 <APP_Update+0x39a>
    30b4:	e775      	b.n	2fa2 <APP_Update+0x286>
    30b6:	4a99      	ldr	r2, [pc, #612]	; (331c <APP_Update+0x600>)
    30b8:	7812      	ldrb	r2, [r2, #0]
    30ba:	2a00      	cmp	r2, #0
    30bc:	d000      	beq.n	30c0 <APP_Update+0x3a4>
    30be:	e770      	b.n	2fa2 <APP_Update+0x286>
    30c0:	2300      	movs	r3, #0
    30c2:	4a95      	ldr	r2, [pc, #596]	; (3318 <APP_Update+0x5fc>)
    30c4:	7013      	strb	r3, [r2, #0]
    30c6:	4a96      	ldr	r2, [pc, #600]	; (3320 <APP_Update+0x604>)
    30c8:	7013      	strb	r3, [r2, #0]
    30ca:	e748      	b.n	2f5e <APP_Update+0x242>
    30cc:	4a95      	ldr	r2, [pc, #596]	; (3324 <APP_Update+0x608>)
    30ce:	e7f3      	b.n	30b8 <APP_Update+0x39c>
    30d0:	7c3b      	ldrb	r3, [r7, #16]
    30d2:	2b00      	cmp	r3, #0
    30d4:	d100      	bne.n	30d8 <APP_Update+0x3bc>
    30d6:	e77b      	b.n	2fd0 <APP_Update+0x2b4>
    30d8:	4b93      	ldr	r3, [pc, #588]	; (3328 <APP_Update+0x60c>)
    30da:	781b      	ldrb	r3, [r3, #0]
    30dc:	2b00      	cmp	r3, #0
    30de:	d100      	bne.n	30e2 <APP_Update+0x3c6>
    30e0:	e776      	b.n	2fd0 <APP_Update+0x2b4>
    30e2:	2200      	movs	r2, #0
    30e4:	4b90      	ldr	r3, [pc, #576]	; (3328 <APP_Update+0x60c>)
    30e6:	2502      	movs	r5, #2
    30e8:	701a      	strb	r2, [r3, #0]
    30ea:	e771      	b.n	2fd0 <APP_Update+0x2b4>
    30ec:	498f      	ldr	r1, [pc, #572]	; (332c <APP_Update+0x610>)
    30ee:	7808      	ldrb	r0, [r1, #0]
    30f0:	4989      	ldr	r1, [pc, #548]	; (3318 <APP_Update+0x5fc>)
    30f2:	2800      	cmp	r0, #0
    30f4:	d001      	beq.n	30fa <APP_Update+0x3de>
    30f6:	700a      	strb	r2, [r1, #0]
    30f8:	e7ee      	b.n	30d8 <APP_Update+0x3bc>
    30fa:	780a      	ldrb	r2, [r1, #0]
    30fc:	2a00      	cmp	r2, #0
    30fe:	d1eb      	bne.n	30d8 <APP_Update+0x3bc>
    3100:	700b      	strb	r3, [r1, #0]
    3102:	4b86      	ldr	r3, [pc, #536]	; (331c <APP_Update+0x600>)
    3104:	3264      	adds	r2, #100	; 0x64
    3106:	701a      	strb	r2, [r3, #0]
    3108:	e7e6      	b.n	30d8 <APP_Update+0x3bc>
    310a:	4b89      	ldr	r3, [pc, #548]	; (3330 <APP_Update+0x614>)
    310c:	7819      	ldrb	r1, [r3, #0]
    310e:	4b84      	ldr	r3, [pc, #528]	; (3320 <APP_Update+0x604>)
    3110:	2900      	cmp	r1, #0
    3112:	d011      	beq.n	3138 <APP_Update+0x41c>
    3114:	4987      	ldr	r1, [pc, #540]	; (3334 <APP_Update+0x618>)
    3116:	7809      	ldrb	r1, [r1, #0]
    3118:	2901      	cmp	r1, #1
    311a:	d10d      	bne.n	3138 <APP_Update+0x41c>
    311c:	701a      	strb	r2, [r3, #0]
    311e:	4e82      	ldr	r6, [pc, #520]	; (3328 <APP_Update+0x60c>)
    3120:	7833      	ldrb	r3, [r6, #0]
    3122:	2b00      	cmp	r3, #0
    3124:	d100      	bne.n	3128 <APP_Update+0x40c>
    3126:	e753      	b.n	2fd0 <APP_Update+0x2b4>
    3128:	f7fe fa1f 	bl	156a <BK4819_GetCTCType>
    312c:	2801      	cmp	r0, #1
    312e:	d100      	bne.n	3132 <APP_Update+0x416>
    3130:	2502      	movs	r5, #2
    3132:	2300      	movs	r3, #0
    3134:	7033      	strb	r3, [r6, #0]
    3136:	e74b      	b.n	2fd0 <APP_Update+0x2b4>
    3138:	781a      	ldrb	r2, [r3, #0]
    313a:	2a00      	cmp	r2, #0
    313c:	d1ef      	bne.n	311e <APP_Update+0x402>
    313e:	3201      	adds	r2, #1
    3140:	701a      	strb	r2, [r3, #0]
    3142:	4b78      	ldr	r3, [pc, #480]	; (3324 <APP_Update+0x608>)
    3144:	3263      	adds	r2, #99	; 0x63
    3146:	e7e9      	b.n	311c <APP_Update+0x400>
    3148:	2501      	movs	r5, #1
    314a:	e741      	b.n	2fd0 <APP_Update+0x2b4>
    314c:	2d00      	cmp	r5, #0
    314e:	d000      	beq.n	3152 <APP_Update+0x436>
    3150:	e743      	b.n	2fda <APP_Update+0x2be>
    3152:	4b79      	ldr	r3, [pc, #484]	; (3338 <APP_Update+0x61c>)
    3154:	781b      	ldrb	r3, [r3, #0]
    3156:	2b00      	cmp	r3, #0
    3158:	d100      	bne.n	315c <APP_Update+0x440>
    315a:	e73e      	b.n	2fda <APP_Update+0x2be>
    315c:	7e3b      	ldrb	r3, [r7, #24]
    315e:	2b00      	cmp	r3, #0
    3160:	d100      	bne.n	3164 <APP_Update+0x448>
    3162:	e73a      	b.n	2fda <APP_Update+0x2be>
    3164:	4b75      	ldr	r3, [pc, #468]	; (333c <APP_Update+0x620>)
    3166:	781b      	ldrb	r3, [r3, #0]
    3168:	3b02      	subs	r3, #2
    316a:	2b01      	cmp	r3, #1
    316c:	d900      	bls.n	3170 <APP_Update+0x454>
    316e:	e734      	b.n	2fda <APP_Update+0x2be>
    3170:	f7fe f9fb 	bl	156a <BK4819_GetCTCType>
    3174:	2801      	cmp	r0, #1
    3176:	d000      	beq.n	317a <APP_Update+0x45e>
    3178:	e72f      	b.n	2fda <APP_Update+0x2be>
    317a:	e736      	b.n	2fea <APP_Update+0x2ce>
    317c:	22b4      	movs	r2, #180	; 0xb4
    317e:	4b70      	ldr	r3, [pc, #448]	; (3340 <APP_Update+0x624>)
    3180:	0052      	lsls	r2, r2, #1
    3182:	801a      	strh	r2, [r3, #0]
    3184:	2200      	movs	r2, #0
    3186:	4b6f      	ldr	r3, [pc, #444]	; (3344 <APP_Update+0x628>)
    3188:	e68e      	b.n	2ea8 <APP_Update+0x18c>
    318a:	f7ff fccb 	bl	2b24 <FREQ_NextChannel>
    318e:	e615      	b.n	2dbc <APP_Update+0xa0>
    3190:	4b6a      	ldr	r3, [pc, #424]	; (333c <APP_Update+0x620>)
    3192:	781b      	ldrb	r3, [r3, #0]
    3194:	2b00      	cmp	r3, #0
    3196:	d103      	bne.n	31a0 <APP_Update+0x484>
    3198:	7823      	ldrb	r3, [r4, #0]
    319a:	2b03      	cmp	r3, #3
    319c:	d100      	bne.n	31a0 <APP_Update+0x484>
    319e:	e609      	b.n	2db4 <APP_Update+0x98>
    31a0:	f7ff f89a 	bl	22d8 <MR_NextChannel>
    31a4:	e60a      	b.n	2dbc <APP_Update+0xa0>
    31a6:	2200      	movs	r2, #0
    31a8:	4967      	ldr	r1, [pc, #412]	; (3348 <APP_Update+0x62c>)
    31aa:	801a      	strh	r2, [r3, #0]
    31ac:	700a      	strb	r2, [r1, #0]
    31ae:	23fd      	movs	r3, #253	; 0xfd
    31b0:	7822      	ldrb	r2, [r4, #0]
    31b2:	1e91      	subs	r1, r2, #2
    31b4:	4219      	tst	r1, r3
    31b6:	d100      	bne.n	31ba <APP_Update+0x49e>
    31b8:	e64c      	b.n	2e54 <APP_Update+0x138>
    31ba:	4b64      	ldr	r3, [pc, #400]	; (334c <APP_Update+0x630>)
    31bc:	4964      	ldr	r1, [pc, #400]	; (3350 <APP_Update+0x634>)
    31be:	781b      	ldrb	r3, [r3, #0]
    31c0:	7809      	ldrb	r1, [r1, #0]
    31c2:	430b      	orrs	r3, r1
    31c4:	d000      	beq.n	31c8 <APP_Update+0x4ac>
    31c6:	e645      	b.n	2e54 <APP_Update+0x138>
    31c8:	4b5f      	ldr	r3, [pc, #380]	; (3348 <APP_Update+0x62c>)
    31ca:	7819      	ldrb	r1, [r3, #0]
    31cc:	4b61      	ldr	r3, [pc, #388]	; (3354 <APP_Update+0x638>)
    31ce:	7818      	ldrb	r0, [r3, #0]
    31d0:	2800      	cmp	r0, #0
    31d2:	d02f      	beq.n	3234 <APP_Update+0x518>
    31d4:	4860      	ldr	r0, [pc, #384]	; (3358 <APP_Update+0x63c>)
    31d6:	2900      	cmp	r1, #0
    31d8:	d01a      	beq.n	3210 <APP_Update+0x4f4>
    31da:	2164      	movs	r1, #100	; 0x64
    31dc:	8001      	strh	r1, [r0, #0]
    31de:	2a01      	cmp	r2, #1
    31e0:	d000      	beq.n	31e4 <APP_Update+0x4c8>
    31e2:	e637      	b.n	2e54 <APP_Update+0x138>
    31e4:	4a5d      	ldr	r2, [pc, #372]	; (335c <APP_Update+0x640>)
    31e6:	7812      	ldrb	r2, [r2, #0]
    31e8:	2a00      	cmp	r2, #0
    31ea:	d000      	beq.n	31ee <APP_Update+0x4d2>
    31ec:	e632      	b.n	2e54 <APP_Update+0x138>
    31ee:	781b      	ldrb	r3, [r3, #0]
    31f0:	2b00      	cmp	r3, #0
    31f2:	d000      	beq.n	31f6 <APP_Update+0x4da>
    31f4:	e62e      	b.n	2e54 <APP_Update+0x138>
    31f6:	4d5a      	ldr	r5, [pc, #360]	; (3360 <APP_Update+0x644>)
    31f8:	782b      	ldrb	r3, [r5, #0]
    31fa:	2b00      	cmp	r3, #0
    31fc:	d00e      	beq.n	321c <APP_Update+0x500>
    31fe:	2000      	movs	r0, #0
    3200:	f005 faee 	bl	87e0 <FUNCTION_Select>
    3204:	2201      	movs	r2, #1
    3206:	4b57      	ldr	r3, [pc, #348]	; (3364 <APP_Update+0x648>)
    3208:	701a      	strb	r2, [r3, #0]
    320a:	2300      	movs	r3, #0
    320c:	702b      	strb	r3, [r5, #0]
    320e:	e621      	b.n	2e54 <APP_Update+0x138>
    3210:	8801      	ldrh	r1, [r0, #0]
    3212:	b288      	uxth	r0, r1
    3214:	2900      	cmp	r1, #0
    3216:	d1e2      	bne.n	31de <APP_Update+0x4c2>
    3218:	7018      	strb	r0, [r3, #0]
    321a:	e7e0      	b.n	31de <APP_Update+0x4c2>
    321c:	f7ff fd60 	bl	2ce0 <APP_EndTransmission>
    3220:	003b      	movs	r3, r7
    3222:	333c      	adds	r3, #60	; 0x3c
    3224:	781a      	ldrb	r2, [r3, #0]
    3226:	2a00      	cmp	r2, #0
    3228:	d0e9      	beq.n	31fe <APP_Update+0x4e2>
    322a:	230a      	movs	r3, #10
    322c:	4353      	muls	r3, r2
    322e:	4a4e      	ldr	r2, [pc, #312]	; (3368 <APP_Update+0x64c>)
    3230:	7013      	strb	r3, [r2, #0]
    3232:	e7e7      	b.n	3204 <APP_Update+0x4e8>
    3234:	2900      	cmp	r1, #0
    3236:	d100      	bne.n	323a <APP_Update+0x51e>
    3238:	e60c      	b.n	2e54 <APP_Update+0x138>
    323a:	2101      	movs	r1, #1
    323c:	7019      	strb	r1, [r3, #0]
    323e:	2a05      	cmp	r2, #5
    3240:	d101      	bne.n	3246 <APP_Update+0x52a>
    3242:	f005 facd 	bl	87e0 <FUNCTION_Select>
    3246:	7823      	ldrb	r3, [r4, #0]
    3248:	2b01      	cmp	r3, #1
    324a:	d100      	bne.n	324e <APP_Update+0x532>
    324c:	e602      	b.n	2e54 <APP_Update+0x138>
    324e:	2200      	movs	r2, #0
    3250:	4b46      	ldr	r3, [pc, #280]	; (336c <APP_Update+0x650>)
    3252:	701a      	strb	r2, [r3, #0]
    3254:	f006 f92a 	bl	94ac <RADIO_PrepareTX>
    3258:	2201      	movs	r2, #1
    325a:	4b42      	ldr	r3, [pc, #264]	; (3364 <APP_Update+0x648>)
    325c:	701a      	strb	r2, [r3, #0]
    325e:	e5f9      	b.n	2e54 <APP_Update+0x138>
    3260:	783b      	ldrb	r3, [r7, #0]
    3262:	2bce      	cmp	r3, #206	; 0xce
    3264:	d900      	bls.n	3268 <APP_Update+0x54c>
    3266:	e612      	b.n	2e8e <APP_Update+0x172>
    3268:	787b      	ldrb	r3, [r7, #1]
    326a:	2bce      	cmp	r3, #206	; 0xce
    326c:	d900      	bls.n	3270 <APP_Update+0x554>
    326e:	e60e      	b.n	2e8e <APP_Update+0x172>
    3270:	2005      	movs	r0, #5
    3272:	f005 fab5 	bl	87e0 <FUNCTION_Select>
    3276:	2300      	movs	r3, #0
    3278:	702b      	strb	r3, [r5, #0]
    327a:	4e3d      	ldr	r6, [pc, #244]	; (3370 <APP_Update+0x654>)
    327c:	7833      	ldrb	r3, [r6, #0]
    327e:	2b00      	cmp	r3, #0
    3280:	d025      	beq.n	32ce <APP_Update+0x5b2>
    3282:	7823      	ldrb	r3, [r4, #0]
    3284:	2b05      	cmp	r3, #5
    3286:	d122      	bne.n	32ce <APP_Update+0x5b2>
    3288:	4d3a      	ldr	r5, [pc, #232]	; (3374 <APP_Update+0x658>)
    328a:	4c3b      	ldr	r4, [pc, #236]	; (3378 <APP_Update+0x65c>)
    328c:	782b      	ldrb	r3, [r5, #0]
    328e:	2b00      	cmp	r3, #0
    3290:	d01e      	beq.n	32d0 <APP_Update+0x5b4>
    3292:	f7fd ffe9 	bl	1268 <BK4819_EnableRX>
    3296:	7cfb      	ldrb	r3, [r7, #19]
    3298:	2b00      	cmp	r3, #0
    329a:	d003      	beq.n	32a4 <APP_Update+0x588>
    329c:	8d79      	ldrh	r1, [r7, #42]	; 0x2a
    329e:	8d38      	ldrh	r0, [r7, #40]	; 0x28
    32a0:	f7fd fe2c 	bl	efc <BK4819_EnableVox>
    32a4:	7ebb      	ldrb	r3, [r7, #26]
    32a6:	2b00      	cmp	r3, #0
    32a8:	d009      	beq.n	32be <APP_Update+0x5a2>
    32aa:	4b28      	ldr	r3, [pc, #160]	; (334c <APP_Update+0x630>)
    32ac:	781a      	ldrb	r2, [r3, #0]
    32ae:	4b28      	ldr	r3, [pc, #160]	; (3350 <APP_Update+0x634>)
    32b0:	781f      	ldrb	r7, [r3, #0]
    32b2:	4317      	orrs	r7, r2
    32b4:	d103      	bne.n	32be <APP_Update+0x5a2>
    32b6:	f7fe fff5 	bl	22a4 <DUALWATCH_Alternate>
    32ba:	4b30      	ldr	r3, [pc, #192]	; (337c <APP_Update+0x660>)
    32bc:	701f      	strb	r7, [r3, #0]
    32be:	f005 fa27 	bl	8710 <FUNCTION_Init>
    32c2:	230a      	movs	r3, #10
    32c4:	8023      	strh	r3, [r4, #0]
    32c6:	2300      	movs	r3, #0
    32c8:	702b      	strb	r3, [r5, #0]
    32ca:	2300      	movs	r3, #0
    32cc:	7033      	strb	r3, [r6, #0]
    32ce:	bdf8      	pop	{r3, r4, r5, r6, r7, pc}
    32d0:	7ebb      	ldrb	r3, [r7, #26]
    32d2:	2b00      	cmp	r3, #0
    32d4:	d009      	beq.n	32ea <APP_Update+0x5ce>
    32d6:	4b1d      	ldr	r3, [pc, #116]	; (334c <APP_Update+0x630>)
    32d8:	4a1d      	ldr	r2, [pc, #116]	; (3350 <APP_Update+0x634>)
    32da:	781b      	ldrb	r3, [r3, #0]
    32dc:	7812      	ldrb	r2, [r2, #0]
    32de:	4313      	orrs	r3, r2
    32e0:	d103      	bne.n	32ea <APP_Update+0x5ce>
    32e2:	4b26      	ldr	r3, [pc, #152]	; (337c <APP_Update+0x660>)
    32e4:	781b      	ldrb	r3, [r3, #0]
    32e6:	2b00      	cmp	r3, #0
    32e8:	d00e      	beq.n	3308 <APP_Update+0x5ec>
    32ea:	220a      	movs	r2, #10
    32ec:	7f3b      	ldrb	r3, [r7, #28]
    32ee:	4353      	muls	r3, r2
    32f0:	8023      	strh	r3, [r4, #0]
    32f2:	2301      	movs	r3, #1
    32f4:	702b      	strb	r3, [r5, #0]
    32f6:	f7fd ff31 	bl	115c <BK4819_DisableVox>
    32fa:	f7fd ff5d 	bl	11b8 <BK4819_Sleep>
    32fe:	2100      	movs	r1, #0
    3300:	0008      	movs	r0, r1
    3302:	f7fd fda5 	bl	e50 <BK4819_ToggleGpioOut>
    3306:	e7e0      	b.n	32ca <APP_Update+0x5ae>
    3308:	f7fe ffcc 	bl	22a4 <DUALWATCH_Alternate>
    330c:	2301      	movs	r3, #1
    330e:	4a1b      	ldr	r2, [pc, #108]	; (337c <APP_Update+0x660>)
    3310:	7013      	strb	r3, [r2, #0]
    3312:	3309      	adds	r3, #9
    3314:	8023      	strh	r3, [r4, #0]
    3316:	e7d8      	b.n	32ca <APP_Update+0x5ae>
    3318:	20001089 	.word	0x20001089
    331c:	20001042 	.word	0x20001042
    3320:	20001088 	.word	0x20001088
    3324:	20001043 	.word	0x20001043
    3328:	2000106c 	.word	0x2000106c
    332c:	2000106d 	.word	0x2000106d
    3330:	2000106f 	.word	0x2000106f
    3334:	2000106e 	.word	0x2000106e
    3338:	2000103e 	.word	0x2000103e
    333c:	200011ea 	.word	0x200011ea
    3340:	20000aba 	.word	0x20000aba
    3344:	2000000d 	.word	0x2000000d
    3348:	2000106b 	.word	0x2000106b
    334c:	20000ab7 	.word	0x20000ab7
    3350:	20001082 	.word	0x20001082
    3354:	20001068 	.word	0x20001068
    3358:	20001040 	.word	0x20001040
    335c:	20001050 	.word	0x20001050
    3360:	20001060 	.word	0x20001060
    3364:	20001048 	.word	0x20001048
    3368:	2000108c 	.word	0x2000108c
    336c:	20000a8a 	.word	0x20000a8a
    3370:	2000103c 	.word	0x2000103c
    3374:	20000640 	.word	0x20000640
    3378:	20001032 	.word	0x20001032
    337c:	20001081 	.word	0x20001081

00003380 <APP_CheckKeys>:
    3380:	b5f8      	push	{r3, r4, r5, r6, r7, lr}
    3382:	4c46      	ldr	r4, [pc, #280]	; (349c <APP_CheckKeys+0x11c>)
    3384:	2105      	movs	r1, #5
    3386:	7825      	ldrb	r5, [r4, #0]
    3388:	4845      	ldr	r0, [pc, #276]	; (34a0 <APP_CheckKeys+0x120>)
    338a:	2d00      	cmp	r5, #0
    338c:	d031      	beq.n	33f2 <APP_CheckKeys+0x72>
    338e:	f7fe fa7c 	bl	188a <GPIO_CheckBit>
    3392:	2800      	cmp	r0, #0
    3394:	d016      	beq.n	33c4 <APP_CheckKeys+0x44>
    3396:	2014      	movs	r0, #20
    3398:	f7fe fe5e 	bl	2058 <SYSTEM_DelayMs>
    339c:	2105      	movs	r1, #5
    339e:	4840      	ldr	r0, [pc, #256]	; (34a0 <APP_CheckKeys+0x120>)
    33a0:	f7fe fa73 	bl	188a <GPIO_CheckBit>
    33a4:	2800      	cmp	r0, #0
    33a6:	d00d      	beq.n	33c4 <APP_CheckKeys+0x44>
    33a8:	2200      	movs	r2, #0
    33aa:	2015      	movs	r0, #21
    33ac:	0011      	movs	r1, r2
    33ae:	f7ff f815 	bl	23dc <APP_ProcessKey>
    33b2:	2300      	movs	r3, #0
    33b4:	7023      	strb	r3, [r4, #0]
    33b6:	4b3b      	ldr	r3, [pc, #236]	; (34a4 <APP_CheckKeys+0x124>)
    33b8:	781b      	ldrb	r3, [r3, #0]
    33ba:	2bff      	cmp	r3, #255	; 0xff
    33bc:	d002      	beq.n	33c4 <APP_CheckKeys+0x44>
    33be:	2201      	movs	r2, #1
    33c0:	4b39      	ldr	r3, [pc, #228]	; (34a8 <APP_CheckKeys+0x128>)
    33c2:	701a      	strb	r2, [r3, #0]
    33c4:	f7fe fbda 	bl	1b7c <KEYBOARD_Poll>
    33c8:	4f38      	ldr	r7, [pc, #224]	; (34ac <APP_CheckKeys+0x12c>)
    33ca:	0005      	movs	r5, r0
    33cc:	783c      	ldrb	r4, [r7, #0]
    33ce:	4e38      	ldr	r6, [pc, #224]	; (34b0 <APP_CheckKeys+0x130>)
    33d0:	4284      	cmp	r4, r0
    33d2:	d021      	beq.n	3418 <APP_CheckKeys+0x98>
    33d4:	2cff      	cmp	r4, #255	; 0xff
    33d6:	d008      	beq.n	33ea <APP_CheckKeys+0x6a>
    33d8:	28ff      	cmp	r0, #255	; 0xff
    33da:	d006      	beq.n	33ea <APP_CheckKeys+0x6a>
    33dc:	4b35      	ldr	r3, [pc, #212]	; (34b4 <APP_CheckKeys+0x134>)
    33de:	2100      	movs	r1, #0
    33e0:	781a      	ldrb	r2, [r3, #0]
    33e2:	4b30      	ldr	r3, [pc, #192]	; (34a4 <APP_CheckKeys+0x124>)
    33e4:	7818      	ldrb	r0, [r3, #0]
    33e6:	f7fe fff9 	bl	23dc <APP_ProcessKey>
    33ea:	2300      	movs	r3, #0
    33ec:	703d      	strb	r5, [r7, #0]
    33ee:	8033      	strh	r3, [r6, #0]
    33f0:	e026      	b.n	3440 <APP_CheckKeys+0xc0>
    33f2:	f7fe fa4a 	bl	188a <GPIO_CheckBit>
    33f6:	4930      	ldr	r1, [pc, #192]	; (34b8 <APP_CheckKeys+0x138>)
    33f8:	1e02      	subs	r2, r0, #0
    33fa:	d10b      	bne.n	3414 <APP_CheckKeys+0x94>
    33fc:	780b      	ldrb	r3, [r1, #0]
    33fe:	3301      	adds	r3, #1
    3400:	b2db      	uxtb	r3, r3
    3402:	700b      	strb	r3, [r1, #0]
    3404:	2b04      	cmp	r3, #4
    3406:	d9dd      	bls.n	33c4 <APP_CheckKeys+0x44>
    3408:	2101      	movs	r1, #1
    340a:	2015      	movs	r0, #21
    340c:	7021      	strb	r1, [r4, #0]
    340e:	f7fe ffe5 	bl	23dc <APP_ProcessKey>
    3412:	e7d7      	b.n	33c4 <APP_CheckKeys+0x44>
    3414:	700d      	strb	r5, [r1, #0]
    3416:	e7d5      	b.n	33c4 <APP_CheckKeys+0x44>
    3418:	8833      	ldrh	r3, [r6, #0]
    341a:	3301      	adds	r3, #1
    341c:	b29b      	uxth	r3, r3
    341e:	8033      	strh	r3, [r6, #0]
    3420:	2b02      	cmp	r3, #2
    3422:	d115      	bne.n	3450 <APP_CheckKeys+0xd0>
